EXPORTS
	_ZN20CPbkxRclSearchEngine4NewLEv @ 1 NONAME
	_ZN20CPbkxRclSearchEngine5NewLCEv @ 2 NONAME
	_ZN22CPbkxRclSettingsEngine4NewLEv @ 3 NONAME
	_ZN22CPbkxRclSettingsEngine5NewLCEv @ 4 NONAME
	_ZTI17CPbkxRclCbRSender @ 5 NONAME ; #<TI>#
	_ZTI19CPbkxRclQueryEditor @ 6 NONAME ; #<TI>#
	_ZTI19CPbkxRclSettingItem @ 7 NONAME ; #<TI>#
	_ZTI19CPbkxRclvCardSender @ 8 NONAME ; #<TI>#
	_ZTI20CPbkxRclSearchEngine @ 9 NONAME ; #<TI>#
	_ZTI21CPbkxRclResultInfoDlg @ 10 NONAME ; #<TI>#
	_ZTI22CPbkxRclContactUpdater @ 11 NONAME ; #<TI>#
	_ZTI22CPbkxRclEventScheduler @ 12 NONAME ; #<TI>#
	_ZTI22CPbkxRclSettingsEngine @ 13 NONAME ; #<TI>#
	_ZTI23CPbkxRclProtocolEnvImpl @ 14 NONAME ; #<TI>#
	_ZTI23CPbkxRclSearchResultDlg @ 15 NONAME ; #<TI>#
	_ZTI26CPbkxRclProtocolResultImpl @ 16 NONAME ; #<TI>#
	_ZTI27CPbkxRclProtocolAccountImpl @ 17 NONAME ; #<TI>#
	_ZTI28CPbkxRclActionServiceWrapper @ 18 NONAME ; #<TI>#
	_ZTI28CPbkxRclServiceUiContextImpl @ 19 NONAME ; #<TI>#
	_ZTV17CPbkxRclCbRSender @ 20 NONAME ; #<VT>#
	_ZTV19CPbkxRclQueryEditor @ 21 NONAME ; #<VT>#
	_ZTV19CPbkxRclSettingItem @ 22 NONAME ; #<VT>#
	_ZTV19CPbkxRclvCardSender @ 23 NONAME ; #<VT>#
	_ZTV20CPbkxRclSearchEngine @ 24 NONAME ; #<VT>#
	_ZTV21CPbkxRclResultInfoDlg @ 25 NONAME ; #<VT>#
	_ZTV22CPbkxRclContactUpdater @ 26 NONAME ; #<VT>#
	_ZTV22CPbkxRclEventScheduler @ 27 NONAME ; #<VT>#
	_ZTV22CPbkxRclSettingsEngine @ 28 NONAME ; #<VT>#
	_ZTV23CPbkxRclProtocolEnvImpl @ 29 NONAME ; #<VT>#
	_ZTV23CPbkxRclSearchResultDlg @ 30 NONAME ; #<VT>#
	_ZTV26CPbkxRclProtocolResultImpl @ 31 NONAME ; #<VT>#
	_ZTV27CPbkxRclProtocolAccountImpl @ 32 NONAME ; #<VT>#
	_ZTV28CPbkxRclActionServiceWrapper @ 33 NONAME ; #<VT>#
	_ZTV28CPbkxRclServiceUiContextImpl @ 34 NONAME ; #<VT>#
	_ZTI15CPbkxRclBaseDlg @ 35 NONAME ; #<TI>#
	_ZTV15CPbkxRclBaseDlg @ 36 NONAME ; #<VT>#
	_ZTI25CPbkxRclResultInfoListBox @ 37 NONAME ; #<TI>#
	_ZTI27CPbkxRclSearchResultListBox @ 38 NONAME ; #<TI>#
	_ZTI28CPbkxRclResultInfoItemDrawer @ 39 NONAME ; #<TI>#
	_ZTI30CPbkxRclSearchResultItemDrawer @ 40 NONAME ; #<TI>#
	_ZTV25CPbkxRclResultInfoListBox @ 41 NONAME ; #<VT>#
	_ZTV27CPbkxRclSearchResultListBox @ 42 NONAME ; #<VT>#
	_ZTV28CPbkxRclResultInfoItemDrawer @ 43 NONAME ; #<VT>#
	_ZTV30CPbkxRclSearchResultItemDrawer @ 44 NONAME ; #<VT>#
	_ZTI28CPbkxRclSearchResultListView @ 45 NONAME
	_ZTV28CPbkxRclSearchResultListView @ 46 NONAME

