EXPORTS
	?insertMessageIntoModel@NmMessageListModel@@AAEXPAVNmMessageEnvelope@@H_N@Z @ 1 NONAME ; void NmMessageListModel::insertMessageIntoModel(class NmMessageEnvelope *, int, bool)
	??0NmUiEngine@@AAE@XZ @ 2 NONAME ; NmUiEngine::NmUiEngine(void)
	?insertDividerIntoModel@NmMessageListModel@@AAEXPAVNmMessageEnvelope@@H@Z @ 3 NONAME ; void NmMessageListModel::insertDividerIntoModel(class NmMessageEnvelope *, int)
	?goOnline@NmUiEngine@@QAEHABVNmId@@@Z @ 4 NONAME ; int NmUiEngine::goOnline(class NmId const &)
	?currentMailboxId@NmMessageListModel@@QAE?AVNmId@@XZ @ 5 NONAME ; class NmId NmMessageListModel::currentMailboxId(void)
	?folderById@NmDataManager@@QAEPAVNmFolderMetaData@@ABVNmId@@0@Z @ 6 NONAME ; class NmFolderMetaData * NmDataManager::folderById(class NmId const &, class NmId const &)
	?completeOperationPart@NmAddAttachmentsOperation@@QAEXABVQString@@ABVNmId@@H@Z @ 7 NONAME ; void NmAddAttachmentsOperation::completeOperationPart(class QString const &, class NmId const &, int)
	?createForwardMessage@NmUiEngine@@QAEPAVNmMessageCreationOperation@@ABVNmId@@0@Z @ 8 NONAME ; class NmMessageCreationOperation * NmUiEngine::createForwardMessage(class NmId const &, class NmId const &)
	?releaseInstance@NmUiEngine@@SAXAAPAV1@@Z @ 9 NONAME ; void NmUiEngine::releaseInstance(class NmUiEngine * &)
	?id@NmMailboxMetaData@@QBE?AVNmId@@XZ @ 10 NONAME ; class NmId NmMailboxMetaData::id(void) const
	?qt_metacast@NmUiEngine@@UAEPAXPBD@Z @ 11 NONAME ; void * NmUiEngine::qt_metacast(char const *)
	?setName@NmMailboxMetaData@@QAEXABVQString@@@Z @ 12 NONAME ; void NmMailboxMetaData::setName(class QString const &)
	??1NmAddAttachmentsOperation@@UAE@XZ @ 13 NONAME ; NmAddAttachmentsOperation::~NmAddAttachmentsOperation(void)
	?fetchMessage@NmUiEngine@@QAEPAVNmOperation@@ABVNmId@@00@Z @ 14 NONAME ; class NmOperation * NmUiEngine::fetchMessage(class NmId const &, class NmId const &, class NmId const &)
	?isRunning@NmOperation@@QBE_NXZ @ 15 NONAME ; bool NmOperation::isRunning(void) const
	??0NmOperation@@QAE@PAVQObject@@@Z @ 16 NONAME ; NmOperation::NmOperation(class QObject *)
	?setPriorityLow@NmBaseClientPlugin@@QAEXXZ @ 17 NONAME ; void NmBaseClientPlugin::setPriorityLow(void)
	?openMessage@NmBaseClientPlugin@@QAEXXZ @ 18 NONAME ; void NmBaseClientPlugin::openMessage(void)
	?getStaticMetaObject@NmMailboxListModel@@SAABUQMetaObject@@XZ @ 19 NONAME ; struct QMetaObject const & NmMailboxListModel::getStaticMetaObject(void)
	?envelope@NmMessageListModelItem@@QBEABVNmMessageEnvelope@@XZ @ 20 NONAME ; class NmMessageEnvelope const & NmMessageListModelItem::envelope(void) const
	?qt_metacall@NmMailboxListModel@@UAEHW4Call@QMetaObject@@HPAPAX@Z @ 21 NONAME ; int NmMailboxListModel::qt_metacall(enum QMetaObject::Call, int, void * *)
	?listMailboxIds@NmDataManager@@QAEXAAV?$QList@VNmId@@@@@Z @ 22 NONAME ; void NmDataManager::listMailboxIds(class QList<class NmId> &)
	??0NmDataManager@@QAE@XZ @ 23 NONAME ; NmDataManager::NmDataManager(void)
	?trUtf8@NmAddAttachmentsOperation@@SA?AVQString@@PBD0H@Z @ 24 NONAME ; class QString NmAddAttachmentsOperation::trUtf8(char const *, char const *, int)
	?releaseMessageListModel@NmUiEngine@@QAEXABVNmId@@@Z @ 25 NONAME ; void NmUiEngine::releaseMessageListModel(class NmId const &)
	?refresh@NmMailboxListModel@@QAEXAAV?$QList@PAVNmMailbox@@@@@Z @ 26 NONAME ; void NmMailboxListModel::refresh(class QList<class NmMailbox *> &)
	?getStaticMetaObject@NmDataManager@@SAABUQMetaObject@@XZ @ 27 NONAME ; struct QMetaObject const & NmDataManager::getStaticMetaObject(void)
	??1NmMessageListModel@@UAE@XZ @ 28 NONAME ; NmMessageListModel::~NmMessageListModel(void)
	?handleCompletedSendOperation@NmUiEngine@@QAEXXZ @ 29 NONAME ; void NmUiEngine::handleCompletedSendOperation(void)
	??_ENmFolderListModel@@UAE@I@Z @ 30 NONAME ; NmFolderListModel::~NmFolderListModel(unsigned int)
	?contentToMessagePart@NmDataManager@@QAEHABVNmId@@00AAVNmMessagePart@@@Z @ 31 NONAME ; int NmDataManager::contentToMessagePart(class NmId const &, class NmId const &, class NmId const &, class NmMessagePart &)
	?setExpanded@NmMessageListModelItem@@QAEX_N@Z @ 32 NONAME ; void NmMessageListModelItem::setExpanded(bool)
	?setPriorityHigh@NmBaseClientPlugin@@QAEXXZ @ 33 NONAME ; void NmBaseClientPlugin::setPriorityHigh(void)
	?deleteMessage@NmBaseClientPlugin@@QAEXXZ @ 34 NONAME ; void NmBaseClientPlugin::deleteMessage(void)
	?getStaticMetaObject@NmAddAttachmentsOperation@@SAABUQMetaObject@@XZ @ 35 NONAME ; struct QMetaObject const & NmAddAttachmentsOperation::getStaticMetaObject(void)
	?standardFolderId@NmUiEngine@@QAE?AVNmId@@ABV2@W4NmFolderType@@@Z @ 36 NONAME ; class NmId NmUiEngine::standardFolderId(class NmId const &, enum NmFolderType)
	?settings@NmBaseClientPlugin@@QAEXXZ @ 37 NONAME ; void NmBaseClientPlugin::settings(void)
	?staticMetaObject@NmUiEngine@@2UQMetaObject@@B @ 38 NONAME ; struct QMetaObject const NmUiEngine::staticMetaObject
	?deleteMessageFromViewerView@NmBaseClientPlugin@@QAEXXZ @ 39 NONAME ; void NmBaseClientPlugin::deleteMessageFromViewerView(void)
	?removeMessage@NmMessageListModel@@IAEXABVNmId@@@Z @ 40 NONAME ; void NmMessageListModel::removeMessage(class NmId const &)
	?getIcon@NmIcons@@SAAAVHbIcon@@W4Icon@1@@Z @ 41 NONAME ; class HbIcon & NmIcons::getIcon(enum NmIcons::Icon)
	?itemType@NmMessageListModelItem@@QBE?AW4NmMessageItemType@1@XZ @ 42 NONAME ; enum NmMessageListModelItem::NmMessageItemType NmMessageListModelItem::itemType(void) const
	?removeAttachment@NmUiEngine@@QAEPAVNmOperation@@ABVNmMessage@@ABVNmId@@@Z @ 43 NONAME ; class NmOperation * NmUiEngine::removeAttachment(class NmMessage const &, class NmId const &)
	?mInstance@NmDataPluginFactory@@0PAV1@A @ 44 NONAME ; class NmDataPluginFactory * NmDataPluginFactory::mInstance
	?data@NmFolderListModel@@UBE?AVQVariant@@ABVQModelIndex@@H@Z @ 45 NONAME ; class QVariant NmFolderListModel::data(class QModelIndex const &, int) const
	?setName@NmFolderMetaData@@QAEXABVQString@@@Z @ 46 NONAME ; void NmFolderMetaData::setName(class QString const &)
	?mReferenceCount@NmUiEngine@@0HA @ 47 NONAME ; int NmUiEngine::mReferenceCount
	?listFolders@NmDataManager@@QAEXVNmId@@AAV?$QList@PAVNmFolder@@@@@Z @ 48 NONAME ; void NmDataManager::listFolders(class NmId, class QList<class NmFolder *> &)
	?handleCompletedOperation@NmUiEngine@@QAEXXZ @ 49 NONAME ; void NmUiEngine::handleCompletedOperation(void)
	?data@NmMailboxListModel@@UBE?AVQVariant@@ABVQModelIndex@@H@Z @ 50 NONAME ; class QVariant NmMailboxListModel::data(class QModelIndex const &, int) const
	?handlePreliminaryOperationFinished@NmOperation@@MAEXXZ @ 51 NONAME ; void NmOperation::handlePreliminaryOperationFinished(void)
	?releaseInstance@NmDataPluginFactory@@SAXAAPAV1@@Z @ 52 NONAME ; void NmDataPluginFactory::releaseInstance(class NmDataPluginFactory * &)
	?createEditorViewCommands@NmBaseClientPlugin@@AAEXABVNmActionRequest@@AAV?$QList@PAVNmAction@@@@@Z @ 53 NONAME ; void NmBaseClientPlugin::createEditorViewCommands(class NmActionRequest const &, class QList<class NmAction *> &)
	?operationCancelled@NmOperation@@IAEXXZ @ 54 NONAME ; void NmOperation::operationCancelled(void)
	??0NmDataPluginFactory@@AAE@XZ @ 55 NONAME ; NmDataPluginFactory::NmDataPluginFactory(void)
	?refresh@NmBaseClientPlugin@@QAEXXZ @ 56 NONAME ; void NmBaseClientPlugin::refresh(void)
	??1NmFolderMetaData@@UAE@XZ @ 57 NONAME ; NmFolderMetaData::~NmFolderMetaData(void)
	?name@NmFolderMetaData@@QBE?AVQString@@XZ @ 58 NONAME ; class QString NmFolderMetaData::name(void) const
	?sendMail@NmBaseClientPlugin@@QAEXXZ @ 59 NONAME ; void NmBaseClientPlugin::sendMail(void)
	?insertNewMessageIntoModel@NmMessageListModel@@AAEXABVNmId@@00@Z @ 60 NONAME ; void NmMessageListModel::insertNewMessageIntoModel(class NmId const &, class NmId const &, class NmId const &)
	?getStaticMetaObject@NmUiEngine@@SAABUQMetaObject@@XZ @ 61 NONAME ; struct QMetaObject const & NmUiEngine::getStaticMetaObject(void)
	?metaObject@NmMessageListModel@@UBEPBUQMetaObject@@XZ @ 62 NONAME ; struct QMetaObject const * NmMessageListModel::metaObject(void) const
	?messageBeingSent@NmUiEngine@@QBEPBVNmMessage@@XZ @ 63 NONAME ; class NmMessage const * NmUiEngine::messageBeingSent(void) const
	?interfaceInstance@NmDataPluginFactory@@QAEPAVNmDataPluginInterface@@VNmId@@@Z @ 64 NONAME ; class NmDataPluginInterface * NmDataPluginFactory::interfaceInstance(class NmId)
	?goOffline@NmBaseClientPlugin@@AAEXABVNmId@@@Z @ 65 NONAME ; void NmBaseClientPlugin::goOffline(class NmId const &)
	?sendMessage@NmUiEngine@@QAEXPAVNmMessage@@ABV?$QList@PAVNmOperation@@@@@Z @ 66 NONAME ; void NmUiEngine::sendMessage(class NmMessage *, class QList<class NmOperation *> const &)
	?tr@NmDataManager@@SA?AVQString@@PBD0H@Z @ 67 NONAME ; class QString NmDataManager::tr(char const *, char const *, int)
	??0NmMailboxListModel@@QAE@AAVNmDataManager@@PAVQObject@@@Z @ 68 NONAME ; NmMailboxListModel::NmMailboxListModel(class NmDataManager &, class QObject *)
	?setPriorityNormal@NmBaseClientPlugin@@QAEXXZ @ 69 NONAME ; void NmBaseClientPlugin::setPriorityNormal(void)
	?changed@NmMessageListModel@@AAE_NABVNmMessageEnvelope@@0@Z @ 70 NONAME ; bool NmMessageListModel::changed(class NmMessageEnvelope const &, class NmMessageEnvelope const &)
	?handleMailboxEvent@NmMailboxListModel@@QAEXW4NmMailboxEvent@@ABV?$QList@VNmId@@@@@Z @ 71 NONAME ; void NmMailboxListModel::handleMailboxEvent(enum NmMailboxEvent, class QList<class NmId> const &)
	?trUtf8@NmMailboxListModel@@SA?AVQString@@PBD0H@Z @ 72 NONAME ; class QString NmMailboxListModel::trUtf8(char const *, char const *, int)
	?mPluginArray@NmDataPluginFactory@@0PAV?$QList@PAVQObject@@@@A @ 73 NONAME ; class QList<class QObject *> * NmDataPluginFactory::mPluginArray
	?getStaticMetaObject@NmMessageListModel@@SAABUQMetaObject@@XZ @ 74 NONAME ; struct QMetaObject const & NmMessageListModel::getStaticMetaObject(void)
	?instance@NmDataPluginFactory@@SAPAV1@XZ @ 75 NONAME ; class NmDataPluginFactory * NmDataPluginFactory::instance(void)
	?tr@NmUiEngine@@SA?AVQString@@PBD0H@Z @ 76 NONAME ; class QString NmUiEngine::tr(char const *, char const *, int)
	?refresh@NmMessageListModel@@QAEXVNmId@@0ABV?$QList@PAVNmMessageEnvelope@@@@@Z @ 77 NONAME ; void NmMessageListModel::refresh(class NmId, class NmId, class QList<class NmMessageEnvelope *> const &)
	?mailboxById@NmUiEngine@@QAEPAVNmMailboxMetaData@@ABVNmId@@@Z @ 78 NONAME ; class NmMailboxMetaData * NmUiEngine::mailboxById(class NmId const &)
	??_ENmMessageListModelItem@@UAE@I@Z @ 79 NONAME ; NmMessageListModelItem::~NmMessageListModelItem(unsigned int)
	?replyAllMail@NmBaseClientPlugin@@QAEXXZ @ 80 NONAME ; void NmBaseClientPlugin::replyAllMail(void)
	?syncStateEvent@NmUiEngine@@IAEXW4NmSyncState@@ABVNmId@@@Z @ 81 NONAME ; void NmUiEngine::syncStateEvent(enum NmSyncState, class NmId const &)
	?trUtf8@NmDataManager@@SA?AVQString@@PBD0@Z @ 82 NONAME ; class QString NmDataManager::trUtf8(char const *, char const *)
	?setEnvelopeProperties@NmMessageListModel@@QAEXW4NmEnvelopeProperties@@ABV?$QList@VNmId@@@@@Z @ 83 NONAME ; void NmMessageListModel::setEnvelopeProperties(enum NmEnvelopeProperties, class QList<class NmId> const &)
	?tr@NmUiEngine@@SA?AVQString@@PBD0@Z @ 84 NONAME ; class QString NmUiEngine::tr(char const *, char const *)
	?mPluginLoaderArray@NmDataPluginFactory@@0V?$QList@PAVQPluginLoader@@@@A @ 85 NONAME ; class QList<class QPluginLoader *> NmDataPluginFactory::mPluginLoaderArray
	?trUtf8@NmBaseClientPlugin@@SA?AVQString@@PBD0@Z @ 86 NONAME ; class QString NmBaseClientPlugin::trUtf8(char const *, char const *)
	?trUtf8@NmBaseClientPlugin@@SA?AVQString@@PBD0H@Z @ 87 NONAME ; class QString NmBaseClientPlugin::trUtf8(char const *, char const *, int)
	?createViewerViewCommands@NmBaseClientPlugin@@AAEXABVNmActionRequest@@AAV?$QList@PAVNmAction@@@@@Z @ 88 NONAME ; void NmBaseClientPlugin::createViewerViewCommands(class NmActionRequest const &, class QList<class NmAction *> &)
	??1NmOperation@@UAE@XZ @ 89 NONAME ; NmOperation::~NmOperation(void)
	?tr@NmMailboxListModel@@SA?AVQString@@PBD0H@Z @ 90 NONAME ; class QString NmMailboxListModel::tr(char const *, char const *, int)
	?trUtf8@NmUiEngine@@SA?AVQString@@PBD0H@Z @ 91 NONAME ; class QString NmUiEngine::trUtf8(char const *, char const *, int)
	?createMailboxItem@NmMailboxListModel@@AAEPAVNmMailboxListModelItem@@PBVNmMailbox@@@Z @ 92 NONAME ; class NmMailboxListModelItem * NmMailboxListModel::createMailboxItem(class NmMailbox const *)
	?setTitleDivider@NmMessageListModelItem@@QAEXABVQString@@@Z @ 93 NONAME ; void NmMessageListModelItem::setTitleDivider(class QString const &)
	?markAsRead@NmBaseClientPlugin@@QAEXXZ @ 94 NONAME ; void NmBaseClientPlugin::markAsRead(void)
	?getInsertionIndex@NmMessageListModel@@ABEHABVNmMessageEnvelope@@@Z @ 95 NONAME ; int NmMessageListModel::getInsertionIndex(class NmMessageEnvelope const &) const
	?updateOperationProgress@NmOperation@@QAEXH@Z @ 96 NONAME ; void NmOperation::updateOperationProgress(int)
	?cleanupSendOperation@NmUiEngine@@QAEXXZ @ 97 NONAME ; void NmUiEngine::cleanupSendOperation(void)
	??1NmFolderListModel@@UAE@XZ @ 98 NONAME ; NmFolderListModel::~NmFolderListModel(void)
	??1NmDataManager@@UAE@XZ @ 99 NONAME ; NmDataManager::~NmDataManager(void)
	?trUtf8@NmAddAttachmentsOperation@@SA?AVQString@@PBD0@Z @ 100 NONAME ; class QString NmAddAttachmentsOperation::trUtf8(char const *, char const *)
	?name@NmMailboxMetaData@@QBE?AVQString@@XZ @ 101 NONAME ; class QString NmMailboxMetaData::name(void) const
	?qt_metacall@NmDataManager@@UAEHW4Call@QMetaObject@@HPAPAX@Z @ 102 NONAME ; int NmDataManager::qt_metacall(enum QMetaObject::Call, int, void * *)
	?runAsyncOperation@NmOperation@@MAEXXZ @ 103 NONAME ; void NmOperation::runAsyncOperation(void)
	??0NmFolderListModel@@QAE@AAVNmDataManager@@PAVQObject@@@Z @ 104 NONAME ; NmFolderListModel::NmFolderListModel(class NmDataManager &, class QObject *)
	?tr@NmBaseClientPlugin@@SA?AVQString@@PBD0H@Z @ 105 NONAME ; class QString NmBaseClientPlugin::tr(char const *, char const *, int)
	??0NmMailboxMetaData@@QAE@XZ @ 106 NONAME ; NmMailboxMetaData::NmMailboxMetaData(void)
	?setEnvelope@NmMessageListModelItem@@QAEXPAVNmMessageEnvelope@@@Z @ 107 NONAME ; void NmMessageListModelItem::setEnvelope(class NmMessageEnvelope *)
	?saveMessage@NmUiEngine@@QAEHABVNmMessage@@@Z @ 108 NONAME ; int NmUiEngine::saveMessage(class NmMessage const &)
	?setId@NmMailboxMetaData@@QAEXABVNmId@@@Z @ 109 NONAME ; void NmMailboxMetaData::setId(class NmId const &)
	?mReferenceCount@NmDataPluginFactory@@0HA @ 110 NONAME ; int NmDataPluginFactory::mReferenceCount
	?tr@NmOperation@@SA?AVQString@@PBD0@Z @ 111 NONAME ; class QString NmOperation::tr(char const *, char const *)
	?updateMessageEnvelope@NmMessageListModel@@AAEXABVNmId@@00@Z @ 112 NONAME ; void NmMessageListModel::updateMessageEnvelope(class NmId const &, class NmId const &, class NmId const &)
	?messagesBelongUnderSameDivider@NmMessageListModel@@ABE_NPBVNmMessageEnvelope@@0@Z @ 113 NONAME ; bool NmMessageListModel::messagesBelongUnderSameDivider(class NmMessageEnvelope const *, class NmMessageEnvelope const *) const
	?metaObject@NmDataManager@@UBEPBUQMetaObject@@XZ @ 114 NONAME ; struct QMetaObject const * NmDataManager::metaObject(void) const
	?freeIcons@NmIcons@@SAXXZ @ 115 NONAME ; void NmIcons::freeIcons(void)
	?isSendingMessage@NmUiEngine@@QBE_NXZ @ 116 NONAME ; bool NmUiEngine::isSendingMessage(void) const
	?tr@NmAddAttachmentsOperation@@SA?AVQString@@PBD0@Z @ 117 NONAME ; class QString NmAddAttachmentsOperation::tr(char const *, char const *)
	?instance@NmUiEngine@@SAPAV1@XZ @ 118 NONAME ; class NmUiEngine * NmUiEngine::instance(void)
	?itemFromModel@NmMessageListModel@@AAEPAVNmMessageListModelItem@@ABVNmId@@@Z @ 119 NONAME ; class NmMessageListModelItem * NmMessageListModel::itemFromModel(class NmId const &)
	?createMessageListCommands@NmBaseClientPlugin@@AAEXABVNmActionRequest@@AAV?$QList@PAVNmAction@@@@@Z @ 120 NONAME ; void NmBaseClientPlugin::createMessageListCommands(class NmActionRequest const &, class QList<class NmAction *> &)
	?updateEnvelopeProperty@NmBaseClientPlugin@@AAEXW4NmEnvelopeProperties@@@Z @ 121 NONAME ; void NmBaseClientPlugin::updateEnvelopeProperty(enum NmEnvelopeProperties)
	?goOffline@NmUiEngine@@QAEHABVNmId@@@Z @ 122 NONAME ; int NmUiEngine::goOffline(class NmId const &)
	?staticMetaObject@NmDataManager@@2UQMetaObject@@B @ 123 NONAME ; struct QMetaObject const NmDataManager::staticMetaObject
	?mInstance@NmUiEngine@@0PAV1@A @ 124 NONAME ; class NmUiEngine * NmUiEngine::mInstance
	?attach@NmBaseClientPlugin@@QAEXXZ @ 125 NONAME ; void NmBaseClientPlugin::attach(void)
	?metaObject@NmAddAttachmentsOperation@@UBEPBUQMetaObject@@XZ @ 126 NONAME ; struct QMetaObject const * NmAddAttachmentsOperation::metaObject(void) const
	?refresh@NmFolderListModel@@QAEXAAV?$QList@PAVNmFolder@@@@@Z @ 127 NONAME ; void NmFolderListModel::refresh(class QList<class NmFolder *> &)
	?trUtf8@NmMailboxListModel@@SA?AVQString@@PBD0@Z @ 128 NONAME ; class QString NmMailboxListModel::trUtf8(char const *, char const *)
	?envelopeById@NmDataManager@@QAEPAVNmMessageEnvelope@@ABVNmId@@00@Z @ 129 NONAME ; class NmMessageEnvelope * NmDataManager::envelopeById(class NmId const &, class NmId const &, class NmId const &)
	?getStaticMetaObject@NmOperation@@SAABUQMetaObject@@XZ @ 130 NONAME ; struct QMetaObject const & NmOperation::getStaticMetaObject(void)
	?trUtf8@NmOperation@@SA?AVQString@@PBD0@Z @ 131 NONAME ; class QString NmOperation::trUtf8(char const *, char const *)
	?doCancelOperation@NmOperation@@MAEXXZ @ 132 NONAME ; void NmOperation::doCancelOperation(void)
	?tr@NmOperation@@SA?AVQString@@PBD0H@Z @ 133 NONAME ; class QString NmOperation::tr(char const *, char const *, int)
	??_ENmOperation@@UAE@I@Z @ 134 NONAME ; NmOperation::~NmOperation(unsigned int)
	?qt_metacall@NmMessageListModel@@UAEHW4Call@QMetaObject@@HPAPAX@Z @ 135 NONAME ; int NmMessageListModel::qt_metacall(enum QMetaObject::Call, int, void * *)
	?staticMetaObject@NmOperation@@2UQMetaObject@@B @ 136 NONAME ; struct QMetaObject const NmOperation::staticMetaObject
	??1NmUiEngine@@EAE@XZ @ 137 NONAME ; NmUiEngine::~NmUiEngine(void)
	?messagePartFile@NmUiEngine@@QAE?AVXQSharableFile@@ABVNmId@@000@Z @ 138 NONAME ; class XQSharableFile NmUiEngine::messagePartFile(class NmId const &, class NmId const &, class NmId const &, class NmId const &)
	??_ENmMessageListModel@@UAE@I@Z @ 139 NONAME ; NmMessageListModel::~NmMessageListModel(unsigned int)
	?addPreliminaryOperation@NmOperation@@QAEXPAV1@@Z @ 140 NONAME ; void NmOperation::addPreliminaryOperation(class NmOperation *)
	?deleteMessages@NmUiEngine@@QAEHABVNmId@@0ABV?$QList@VNmId@@@@@Z @ 141 NONAME ; int NmUiEngine::deleteMessages(class NmId const &, class NmId const &, class QList<class NmId> const &)
	?mailboxById@NmDataManager@@QAEPAVNmMailboxMetaData@@ABVNmId@@@Z @ 142 NONAME ; class NmMailboxMetaData * NmDataManager::mailboxById(class NmId const &)
	?pluginInstances@NmDataPluginFactory@@QAEPAV?$QList@PAVQObject@@@@XZ @ 143 NONAME ; class QList<class QObject *> * NmDataPluginFactory::pluginInstances(void)
	?addAttachments@NmUiEngine@@QAEPAVNmAddAttachmentsOperation@@ABVNmMessage@@ABV?$QList@VQString@@@@@Z @ 144 NONAME ; class NmAddAttachmentsOperation * NmUiEngine::addAttachments(class NmMessage const &, class QList<class QString> const &)
	?tr@NmBaseClientPlugin@@SA?AVQString@@PBD0@Z @ 145 NONAME ; class QString NmBaseClientPlugin::tr(char const *, char const *)
	??0NmAddAttachmentsOperation@@QAE@PAVQObject@@@Z @ 146 NONAME ; NmAddAttachmentsOperation::NmAddAttachmentsOperation(class QObject *)
	?listMessages@NmDataManager@@QAEXABVNmId@@0AAV?$QList@PAVNmMessageEnvelope@@@@@Z @ 147 NONAME ; void NmDataManager::listMessages(class NmId const &, class NmId const &, class QList<class NmMessageEnvelope *> &)
	??1NmBaseClientPlugin@@UAE@XZ @ 148 NONAME ; NmBaseClientPlugin::~NmBaseClientPlugin(void)
	?qt_metacast@NmDataManager@@UAEPAXPBD@Z @ 149 NONAME ; void * NmDataManager::qt_metacast(char const *)
	?qt_metacall@NmBaseClientPlugin@@UAEHW4Call@QMetaObject@@HPAPAX@Z @ 150 NONAME ; int NmBaseClientPlugin::qt_metacall(enum QMetaObject::Call, int, void * *)
	?envelopePtr@NmMessageListModelItem@@QAEPAVNmMessageEnvelope@@XZ @ 151 NONAME ; class NmMessageEnvelope * NmMessageListModelItem::envelopePtr(void)
	?messageListModel@NmUiEngine@@QAEAAVNmMessageListModel@@ABVNmId@@0@Z @ 152 NONAME ; class NmMessageListModel & NmUiEngine::messageListModel(class NmId const &, class NmId const &)
	??1NmMailboxMetaData@@UAE@XZ @ 153 NONAME ; NmMailboxMetaData::~NmMailboxMetaData(void)
	?connectionEvent@NmUiEngine@@IAEXW4NmConnectState@@ABVNmId@@@Z @ 154 NONAME ; void NmUiEngine::connectionEvent(enum NmConnectState, class NmId const &)
	?mailbox@NmDataManager@@QAEPAVNmMailbox@@ABVNmId@@@Z @ 155 NONAME ; class NmMailbox * NmDataManager::mailbox(class NmId const &)
	?interfaceInstance@NmDataPluginFactory@@QAEPAVNmDataPluginInterface@@PAVQObject@@@Z @ 156 NONAME ; class NmDataPluginInterface * NmDataPluginFactory::interfaceInstance(class QObject *)
	?refreshModelItem@NmMailboxListModel@@QAEXABVNmId@@_N@Z @ 157 NONAME ; void NmMailboxListModel::refreshModelItem(class NmId const &, bool)
	?metaObject@NmMailboxListModel@@UBEPBUQMetaObject@@XZ @ 158 NONAME ; struct QMetaObject const * NmMailboxListModel::metaObject(void) const
	?IconId@NmMailboxMetaData@@QBE?AVNmId@@XZ @ 159 NONAME ; class NmId NmMailboxMetaData::IconId(void) const
	??0NmFolderMetaData@@QAE@XZ @ 160 NONAME ; NmFolderMetaData::NmFolderMetaData(void)
	?createNewMessage@NmUiEngine@@QAEPAVNmMessageCreationOperation@@ABVNmId@@@Z @ 161 NONAME ; class NmMessageCreationOperation * NmUiEngine::createNewMessage(class NmId const &)
	?staticMetaObject@NmAddAttachmentsOperation@@2UQMetaObject@@B @ 162 NONAME ; struct QMetaObject const NmAddAttachmentsOperation::staticMetaObject
	?connectionState@NmUiEngine@@QAE?AW4NmConnectState@@ABVNmId@@@Z @ 163 NONAME ; enum NmConnectState NmUiEngine::connectionState(class NmId const &)
	?createTitleDividerItem@NmMessageListModel@@AAEPAVNmMessageListModelItem@@PAVNmMessageEnvelope@@@Z @ 164 NONAME ; class NmMessageListModelItem * NmMessageListModel::createTitleDividerItem(class NmMessageEnvelope *)
	?setId@NmFolderMetaData@@QAEXABVNmId@@@Z @ 165 NONAME ; void NmFolderMetaData::setId(class NmId const &)
	?cancelOperation@NmOperation@@QAEXXZ @ 166 NONAME ; void NmOperation::cancelOperation(void)
	??_ENmFolderMetaData@@UAE@I@Z @ 167 NONAME ; NmFolderMetaData::~NmFolderMetaData(unsigned int)
	?qt_metacast@NmMessageListModel@@UAEPAXPBD@Z @ 168 NONAME ; void * NmMessageListModel::qt_metacast(char const *)
	?operationProgressChanged@NmOperation@@IAEXH@Z @ 169 NONAME ; void NmOperation::operationProgressChanged(int)
	?trUtf8@NmOperation@@SA?AVQString@@PBD0H@Z @ 170 NONAME ; class QString NmOperation::trUtf8(char const *, char const *, int)
	??_ENmMailboxListModel@@UAE@I@Z @ 171 NONAME ; NmMailboxListModel::~NmMailboxListModel(unsigned int)
	?metaObject@NmUiEngine@@UBEPBUQMetaObject@@XZ @ 172 NONAME ; struct QMetaObject const * NmUiEngine::metaObject(void) const
	??_ENmBaseClientPlugin@@UAE@I@Z @ 173 NONAME ; NmBaseClientPlugin::~NmBaseClientPlugin(unsigned int)
	?markAsUnread@NmBaseClientPlugin@@QAEXXZ @ 174 NONAME ; void NmBaseClientPlugin::markAsUnread(void)
	?metaObject@NmBaseClientPlugin@@UBEPBUQMetaObject@@XZ @ 175 NONAME ; struct QMetaObject const * NmBaseClientPlugin::metaObject(void) const
	?mailboxListModel@NmUiEngine@@QAEAAVNmMailboxListModel@@XZ @ 176 NONAME ; class NmMailboxListModel & NmUiEngine::mailboxListModel(void)
	?tr@NmDataManager@@SA?AVQString@@PBD0@Z @ 177 NONAME ; class QString NmDataManager::tr(char const *, char const *)
	?setIconId@NmMailboxMetaData@@QAEXABVNmId@@@Z @ 178 NONAME ; void NmMailboxMetaData::setIconId(class NmId const &)
	??1NmDataPluginFactory@@EAE@XZ @ 179 NONAME ; NmDataPluginFactory::~NmDataPluginFactory(void)
	?refreshMailboxListModel@NmUiEngine@@QAEXXZ @ 180 NONAME ; void NmUiEngine::refreshMailboxListModel(void)
	?rowCount@NmFolderListModel@@UBEHABVQModelIndex@@@Z @ 181 NONAME ; int NmFolderListModel::rowCount(class QModelIndex const &) const
	?trUtf8@NmMessageListModel@@SA?AVQString@@PBD0@Z @ 182 NONAME ; class QString NmMessageListModel::trUtf8(char const *, char const *)
	?doUpdateOperationProgress@NmOperation@@MAEXXZ @ 183 NONAME ; void NmOperation::doUpdateOperationProgress(void)
	?tr@NmMailboxListModel@@SA?AVQString@@PBD0@Z @ 184 NONAME ; class QString NmMailboxListModel::tr(char const *, char const *)
	?removeMessage@NmUiEngine@@QAEHABVNmId@@00@Z @ 185 NONAME ; int NmUiEngine::removeMessage(class NmId const &, class NmId const &, class NmId const &)
	??_ENmUiEngine@@UAE@I@Z @ 186 NONAME ; NmUiEngine::~NmUiEngine(unsigned int)
	?operationCompleted@NmOperation@@IAEXH@Z @ 187 NONAME ; void NmOperation::operationCompleted(int)
	?storeOperation@NmUiEngine@@QAEXPAVNmOperation@@@Z @ 188 NONAME ; void NmUiEngine::storeOperation(class NmOperation *)
	?callEmitDataChanged@NmMessageListModelItem@@QAEXXZ @ 189 NONAME ; void NmMessageListModelItem::callEmitDataChanged(void)
	??0NmMessageListModel@@QAE@AAVNmDataManager@@PAVQObject@@@Z @ 190 NONAME ; NmMessageListModel::NmMessageListModel(class NmDataManager &, class QObject *)
	??_ENmAddAttachmentsOperation@@UAE@I@Z @ 191 NONAME ; NmAddAttachmentsOperation::~NmAddAttachmentsOperation(unsigned int)
	?syncState@NmUiEngine@@QAE?AW4NmSyncState@@ABVNmId@@@Z @ 192 NONAME ; enum NmSyncState NmUiEngine::syncState(class NmId const &)
	?checkOutbox@NmUiEngine@@QAEPAVNmCheckOutboxOperation@@ABVNmId@@@Z @ 193 NONAME ; class NmCheckOutboxOperation * NmUiEngine::checkOutbox(class NmId const &)
	?listMailboxes@NmDataManager@@QAEXAAV?$QList@PAVNmMailbox@@@@@Z @ 194 NONAME ; void NmDataManager::listMailboxes(class QList<class NmMailbox *> &)
	?message@NmUiEngine@@QAEPAVNmMessage@@ABVNmId@@00@Z @ 195 NONAME ; class NmMessage * NmUiEngine::message(class NmId const &, class NmId const &, class NmId const &)
	?refreshMailbox@NmUiEngine@@QAEHABVNmId@@@Z @ 196 NONAME ; int NmUiEngine::refreshMailbox(class NmId const &)
	?trUtf8@NmUiEngine@@SA?AVQString@@PBD0@Z @ 197 NONAME ; class QString NmUiEngine::trUtf8(char const *, char const *)
	?contentToMessagePart@NmUiEngine@@QAEHABVNmId@@00AAVNmMessagePart@@@Z @ 198 NONAME ; int NmUiEngine::contentToMessagePart(class NmId const &, class NmId const &, class NmId const &, class NmMessagePart &)
	?removeItem@NmMessageListModel@@AAEXHAAVNmMessageListModelItem@@@Z @ 199 NONAME ; void NmMessageListModel::removeItem(int, class NmMessageListModelItem &)
	??1NmMailboxListModel@@UAE@XZ @ 200 NONAME ; NmMailboxListModel::~NmMailboxListModel(void)
	??0NmBaseClientPlugin@@QAE@XZ @ 201 NONAME ; NmBaseClientPlugin::NmBaseClientPlugin(void)
	?forwardMail@NmBaseClientPlugin@@QAEXXZ @ 202 NONAME ; void NmBaseClientPlugin::forwardMail(void)
	?createReplyMessage@NmUiEngine@@QAEPAVNmMessageCreationOperation@@ABVNmId@@0_N@Z @ 203 NONAME ; class NmMessageCreationOperation * NmUiEngine::createReplyMessage(class NmId const &, class NmId const &, bool)
	?setItemType@NmMessageListModelItem@@QAEXW4NmMessageItemType@1@@Z @ 204 NONAME ; void NmMessageListModelItem::setItemType(enum NmMessageListModelItem::NmMessageItemType)
	??_ENmDataPluginFactory@@UAE@I@Z @ 205 NONAME ; NmDataPluginFactory::~NmDataPluginFactory(unsigned int)
	?mailboxListChanged@NmBaseClientPlugin@@AAEXABVNmId@@W4MailboxEventType@NmSettings@@@Z @ 206 NONAME ; void NmBaseClientPlugin::mailboxListChanged(class NmId const &, enum NmSettings::MailboxEventType)
	?expanded@NmMessageListModelItem@@QBE_NXZ @ 207 NONAME ; bool NmMessageListModelItem::expanded(void) const
	?columnCount@NmFolderListModel@@UBEHABVQModelIndex@@@Z @ 208 NONAME ; int NmFolderListModel::columnCount(class QModelIndex const &) const
	?pluginInstance@NmDataPluginFactory@@QAEPAVQObject@@VNmId@@@Z @ 209 NONAME ; class QObject * NmDataPluginFactory::pluginInstance(class NmId)
	?setNewParam@NmMessageListModel@@IAEXPAVNmUiStartParam@@@Z @ 210 NONAME ; void NmMessageListModel::setNewParam(class NmUiStartParam *)
	?data@NmMessageListModel@@UBE?AVQVariant@@ABVQModelIndex@@H@Z @ 211 NONAME ; class QVariant NmMessageListModel::data(class QModelIndex const &, int) const
	?goOnline@NmBaseClientPlugin@@AAEXABVNmId@@@Z @ 212 NONAME ; void NmBaseClientPlugin::goOnline(class NmId const &)
	?createNewMail@NmBaseClientPlugin@@QAEXXZ @ 213 NONAME ; void NmBaseClientPlugin::createNewMail(void)
	?qt_metacast@NmBaseClientPlugin@@UAEPAXPBD@Z @ 214 NONAME ; void * NmBaseClientPlugin::qt_metacast(char const *)
	?staticMetaObject@NmBaseClientPlugin@@2UQMetaObject@@B @ 215 NONAME ; struct QMetaObject const NmBaseClientPlugin::staticMetaObject
	?setEnvelope@NmMessageListModelItem@@QAEXABVNmMessageEnvelope@@@Z @ 216 NONAME ; void NmMessageListModelItem::setEnvelope(class NmMessageEnvelope const &)
	?qt_metacast@NmAddAttachmentsOperation@@UAEPAXPBD@Z @ 217 NONAME ; void * NmAddAttachmentsOperation::qt_metacast(char const *)
	?createNewMailViewerToolBar@NmBaseClientPlugin@@QAEXXZ @ 218 NONAME ; void NmBaseClientPlugin::createNewMailViewerToolBar(void)
	?setEnvelopes@NmUiEngine@@QAEPAVNmStoreEnvelopesOperation@@ABVNmId@@0W4NmEnvelopeProperties@@ABV?$QList@PB$$CBVNmMessageEnvelope@@@@@Z @ 219 NONAME ; class NmStoreEnvelopesOperation * NmUiEngine::setEnvelopes(class NmId const &, class NmId const &, enum NmEnvelopeProperties, class QList<class NmMessageEnvelope const *> const &)
	?staticMetaObject@NmMailboxListModel@@2UQMetaObject@@B @ 220 NONAME ; struct QMetaObject const NmMailboxListModel::staticMetaObject
	?trUtf8@NmDataManager@@SA?AVQString@@PBD0H@Z @ 221 NONAME ; class QString NmDataManager::trUtf8(char const *, char const *, int)
	?fetchMessagePart@NmUiEngine@@QAEPAVNmOperation@@ABVNmId@@000@Z @ 222 NONAME ; class NmOperation * NmUiEngine::fetchMessagePart(class NmId const &, class NmId const &, class NmId const &, class NmId const &)
	?completeOperation@NmOperation@@QAEXH@Z @ 223 NONAME ; void NmOperation::completeOperation(int)
	?parent@NmFolderListModel@@UBE?AVQModelIndex@@ABV2@@Z @ 224 NONAME ; class QModelIndex NmFolderListModel::parent(class QModelIndex const &) const
	?folder@NmDataManager@@QAEPAVNmFolder@@ABVNmId@@0@Z @ 225 NONAME ; class NmFolder * NmDataManager::folder(class NmId const &, class NmId const &)
	?replyMail@NmBaseClientPlugin@@QAEXXZ @ 226 NONAME ; void NmBaseClientPlugin::replyMail(void)
	??1NmMessageListModelItem@@UAE@XZ @ 227 NONAME ; NmMessageListModelItem::~NmMessageListModelItem(void)
	?mailboxPropertyChanged@NmBaseClientPlugin@@AAEXABVNmId@@VQVariant@@1@Z @ 228 NONAME ; void NmBaseClientPlugin::mailboxPropertyChanged(class NmId const &, class QVariant, class QVariant)
	?qt_metacall@NmOperation@@UAEHW4Call@QMetaObject@@HPAPAX@Z @ 229 NONAME ; int NmOperation::qt_metacall(enum QMetaObject::Call, int, void * *)
	?removeMessageFromModel@NmMessageListModel@@AAEXABVNmId@@@Z @ 230 NONAME ; void NmMessageListModel::removeMessageFromModel(class NmId const &)
	?handleRequest@NmBaseClientPlugin@@AAEXW4NmActionResponseCommand@@ABVNmActionRequest@@@Z @ 231 NONAME ; void NmBaseClientPlugin::handleRequest(enum NmActionResponseCommand, class NmActionRequest const &)
	?trUtf8@NmMessageListModel@@SA?AVQString@@PBD0H@Z @ 232 NONAME ; class QString NmMessageListModel::trUtf8(char const *, char const *, int)
	?operationPartCompleted@NmAddAttachmentsOperation@@IAEXABVQString@@ABVNmId@@H@Z @ 233 NONAME ; void NmAddAttachmentsOperation::operationPartCompleted(class QString const &, class NmId const &, int)
	?tr@NmMessageListModel@@SA?AVQString@@PBD0@Z @ 234 NONAME ; class QString NmMessageListModel::tr(char const *, char const *)
	?doCompleteOperation@NmOperation@@MAEXXZ @ 235 NONAME ; void NmOperation::doCompleteOperation(void)
	?dividerInsertionIndex@NmMessageListModel@@AAEHH@Z @ 236 NONAME ; int NmMessageListModel::dividerInsertionIndex(int)
	?id@NmFolderMetaData@@QBE?AVNmId@@XZ @ 237 NONAME ; class NmId NmFolderMetaData::id(void) const
	?createMessageItem@NmMessageListModel@@AAEPAVNmMessageListModelItem@@PAVNmMessageEnvelope@@@Z @ 238 NONAME ; class NmMessageListModelItem * NmMessageListModel::createMessageItem(class NmMessageEnvelope *)
	?getStandardFolderId@NmDataManager@@QAE?AVNmId@@ABV2@W4NmFolderType@@@Z @ 239 NONAME ; class NmId NmDataManager::getStandardFolderId(class NmId const &, enum NmFolderType)
	?dividersActive@NmMessageListModel@@QAE_NXZ @ 240 NONAME ; bool NmMessageListModel::dividersActive(void)
	?getStaticMetaObject@NmBaseClientPlugin@@SAABUQMetaObject@@XZ @ 241 NONAME ; struct QMetaObject const & NmBaseClientPlugin::getStaticMetaObject(void)
	?titleDivider@NmMessageListModelItem@@QBE?AVQString@@XZ @ 242 NONAME ; class QString NmMessageListModelItem::titleDivider(void) const
	??_ENmDataManager@@UAE@I@Z @ 243 NONAME ; NmDataManager::~NmDataManager(unsigned int)
	?qt_metacast@NmMailboxListModel@@UAEPAXPBD@Z @ 244 NONAME ; void * NmMailboxListModel::qt_metacast(char const *)
	?updateEnvelope@NmMessageListModel@@AAEXW4NmEnvelopeProperties@@ABVNmId@@@Z @ 245 NONAME ; void NmMessageListModel::updateEnvelope(enum NmEnvelopeProperties, class NmId const &)
	?getActions@NmBaseClientPlugin@@UAEXABVNmActionRequest@@AAV?$QList@PAVNmAction@@@@@Z @ 246 NONAME ; void NmBaseClientPlugin::getActions(class NmActionRequest const &, class QList<class NmAction *> &)
	?handleMessageEvent@NmMessageListModel@@QAEXW4NmMessageEvent@@ABVNmId@@ABV?$QList@VNmId@@@@@Z @ 247 NONAME ; void NmMessageListModel::handleMessageEvent(enum NmMessageEvent, class NmId const &, class QList<class NmId> const &)
	??_ENmMailboxMetaData@@UAE@I@Z @ 248 NONAME ; NmMailboxMetaData::~NmMailboxMetaData(unsigned int)
	??0NmMessageListModelItem@@QAE@XZ @ 249 NONAME ; NmMessageListModelItem::NmMessageListModelItem(void)
	?tr@NmAddAttachmentsOperation@@SA?AVQString@@PBD0H@Z @ 250 NONAME ; class QString NmAddAttachmentsOperation::tr(char const *, char const *, int)
	?setDividers@NmMessageListModel@@QAEX_N@Z @ 251 NONAME ; void NmMessageListModel::setDividers(bool)
	?loadPlugin@NmDataPluginFactory@@QAEPAVQObject@@ABVQDir@@ABVQString@@@Z @ 252 NONAME ; class QObject * NmDataPluginFactory::loadPlugin(class QDir const &, class QString const &)
	?qt_metacast@NmOperation@@UAEPAXPBD@Z @ 253 NONAME ; void * NmOperation::qt_metacast(char const *)
	?tr@NmMessageListModel@@SA?AVQString@@PBD0H@Z @ 254 NONAME ; class QString NmMessageListModel::tr(char const *, char const *, int)
	?qt_metacall@NmAddAttachmentsOperation@@UAEHW4Call@QMetaObject@@HPAPAX@Z @ 255 NONAME ; int NmAddAttachmentsOperation::qt_metacall(enum QMetaObject::Call, int, void * *)
	?qt_metacall@NmUiEngine@@UAEHW4Call@QMetaObject@@HPAPAX@Z @ 256 NONAME ; int NmUiEngine::qt_metacall(enum QMetaObject::Call, int, void * *)
	?staticMetaObject@NmMessageListModel@@2UQMetaObject@@B @ 257 NONAME ; struct QMetaObject const NmMessageListModel::staticMetaObject
	?message@NmDataManager@@QAEPAVNmMessage@@ABVNmId@@00@Z @ 258 NONAME ; class NmMessage * NmDataManager::message(class NmId const &, class NmId const &, class NmId const &)
	?metaObject@NmOperation@@UBEPBUQMetaObject@@XZ @ 259 NONAME ; struct QMetaObject const * NmOperation::metaObject(void) const
	?sendOperationCompleted@NmUiEngine@@IAEXXZ @ 260 NONAME ; void NmUiEngine::sendOperationCompleted(void)
	?removeAttachment@NmBaseClientPlugin@@QAEXXZ @ 261 NONAME ; void NmBaseClientPlugin::removeAttachment(void)
	?openAttachment@NmBaseClientPlugin@@QAEXXZ @ 262 NONAME ; void NmBaseClientPlugin::openAttachment(void)
	?operationCompleted@NmUiEngine@@IAEXABVNmOperationCompletionEvent@@@Z @ 263 NONAME ; void NmUiEngine::operationCompleted(class NmOperationCompletionEvent const &)
	?handleSyncStateEvent@NmUiEngine@@QAEXW4NmSyncState@@ABVNmOperationCompletionEvent@@@Z @ 264 NONAME ; void NmUiEngine::handleSyncStateEvent(enum NmSyncState, class NmOperationCompletionEvent const &)

