EXPORTS
	_ZN14NmHtmlLineEdit11qt_metacallEN11QMetaObject4CallEiPPv @ 1 NONAME
	_ZN14NmHtmlLineEdit11qt_metacastEPKc @ 2 NONAME
	_ZN14NmHtmlLineEdit11setDocumentEP13QTextDocument @ 3 NONAME
	_ZN14NmHtmlLineEdit12setPlainTextERK7QString @ 4 NONAME
	_ZN14NmHtmlLineEdit13setTextCursorERK11QTextCursor @ 5 NONAME
	_ZN14NmHtmlLineEdit16staticMetaObjectE @ 6 NONAME DATA 16
	_ZN14NmHtmlLineEdit19getStaticMetaObjectEv @ 7 NONAME
	_ZN14NmHtmlLineEdit7setHtmlERK7QString @ 8 NONAME
	_ZN14NmHtmlLineEditC1EP13QGraphicsItem @ 9 NONAME
	_ZN14NmHtmlLineEditC2EP13QGraphicsItem @ 10 NONAME
	_ZN14NmHtmlLineEditD0Ev @ 11 NONAME
	_ZN14NmHtmlLineEditD1Ev @ 12 NONAME
	_ZN14NmHtmlLineEditD2Ev @ 13 NONAME
	_ZN16NmEditorTextEdit11qt_metacallEN11QMetaObject4CallEiPPv @ 14 NONAME
	_ZN16NmEditorTextEdit11qt_metacastEPKc @ 15 NONAME
	_ZN16NmEditorTextEdit15rectForPositionEi @ 16 NONAME
	_ZN16NmEditorTextEdit16staticMetaObjectE @ 17 NONAME DATA 16
	_ZN16NmEditorTextEdit18setCustomTextColorERK5QPairIb6QColorE @ 18 NONAME
	_ZN16NmEditorTextEdit18setCustomTextColorEbRK6QColor @ 19 NONAME
	_ZN16NmEditorTextEdit19getStaticMetaObjectEv @ 20 NONAME
	_ZN16NmEditorTextEdit21updateCustomTextColorEv @ 21 NONAME
	_ZN16NmEditorTextEditC1EP13QGraphicsItem @ 22 NONAME
	_ZN16NmEditorTextEditC2EP13QGraphicsItem @ 23 NONAME
	_ZN16NmEditorTextEditD0Ev @ 24 NONAME
	_ZN16NmEditorTextEditD1Ev @ 25 NONAME
	_ZN16NmEditorTextEditD2Ev @ 26 NONAME
	_ZN19NmRecipientLineEdit11qt_metacallEN11QMetaObject4CallEiPPv @ 27 NONAME
	_ZN19NmRecipientLineEdit11qt_metacastEPKc @ 28 NONAME
	_ZN19NmRecipientLineEdit13keyPressEventEP9QKeyEvent @ 29 NONAME
	_ZN19NmRecipientLineEdit16emailAddressListEv @ 30 NONAME
	_ZN19NmRecipientLineEdit16inputMethodEventEP17QInputMethodEvent @ 31 NONAME
	_ZN19NmRecipientLineEdit16staticMetaObjectE @ 32 NONAME DATA 16
	_ZN19NmRecipientLineEdit17handleTextChangedERK7QString @ 33 NONAME
	_ZN19NmRecipientLineEdit19addSelectedContactsERK8QVariant @ 34 NONAME
	_ZN19NmRecipientLineEdit19getStaticMetaObjectEv @ 35 NONAME
	_ZN19NmRecipientLineEdit24generateEmailAddressListEv @ 36 NONAME
	_ZN19NmRecipientLineEditC1EP13QGraphicsItem @ 37 NONAME
	_ZN19NmRecipientLineEditC2EP13QGraphicsItem @ 38 NONAME
	_ZN19NmRecipientLineEditD0Ev @ 39 NONAME
	_ZN19NmRecipientLineEditD1Ev @ 40 NONAME
	_ZN19NmRecipientLineEditD2Ev @ 41 NONAME
	_ZN20NmAttachmentListItem11constructUiEv @ 42 NONAME
	_ZN20NmAttachmentListItem11qt_metacallEN11QMetaObject4CallEiPPv @ 43 NONAME
	_ZN20NmAttachmentListItem11qt_metacastEPKc @ 44 NONAME
	_ZN20NmAttachmentListItem12gestureEventEP13QGestureEvent @ 45 NONAME
	_ZN20NmAttachmentListItem12setTextColorE6QColor @ 46 NONAME
	_ZN20NmAttachmentListItem13itemActivatedEv @ 47 NONAME
	_ZN20NmAttachmentListItem15hideProgressBarEv @ 48 NONAME
	_ZN20NmAttachmentListItem15itemLongPressedE7QPointF @ 49 NONAME
	_ZN20NmAttachmentListItem15setFileNameTextERK7QString @ 50 NONAME
	_ZN20NmAttachmentListItem15setFileSizeTextERK7QString @ 51 NONAME
	_ZN20NmAttachmentListItem16staticMetaObjectE @ 52 NONAME DATA 16
	_ZN20NmAttachmentListItem17removeProgressBarEv @ 53 NONAME
	_ZN20NmAttachmentListItem19getStaticMetaObjectEv @ 54 NONAME
	_ZN20NmAttachmentListItem19setProgressBarValueEi @ 55 NONAME
	_ZN20NmAttachmentListItem4initEv @ 56 NONAME
	_ZN20NmAttachmentListItemC1EP13QGraphicsItem @ 57 NONAME
	_ZN20NmAttachmentListItemC2EP13QGraphicsItem @ 58 NONAME
	_ZN20NmAttachmentListItemD0Ev @ 59 NONAME
	_ZN20NmAttachmentListItemD1Ev @ 60 NONAME
	_ZN20NmAttachmentListItemD2Ev @ 61 NONAME
	_ZN20NmBaseViewScrollArea11qt_metacallEN11QMetaObject4CallEiPPv @ 62 NONAME
	_ZN20NmBaseViewScrollArea11qt_metacastEPKc @ 63 NONAME
	_ZN20NmBaseViewScrollArea14mouseMoveEventEP24QGraphicsSceneMouseEvent @ 64 NONAME
	_ZN20NmBaseViewScrollArea15mousePressEventEP24QGraphicsSceneMouseEvent @ 65 NONAME
	_ZN20NmBaseViewScrollArea16longPressGestureERK7QPointF @ 66 NONAME
	_ZN20NmBaseViewScrollArea16staticMetaObjectE @ 67 NONAME DATA 16
	_ZN20NmBaseViewScrollArea17mouseReleaseEventEP24QGraphicsSceneMouseEvent @ 68 NONAME
	_ZN20NmBaseViewScrollArea19getStaticMetaObjectEv @ 69 NONAME
	_ZN20NmBaseViewScrollArea20handleMouseMoveEventEP24QGraphicsSceneMouseEvent @ 70 NONAME
	_ZN20NmBaseViewScrollArea21handleMousePressEventEP24QGraphicsSceneMouseEvent @ 71 NONAME
	_ZN20NmBaseViewScrollArea22handleLongPressGestureERK7QPointF @ 72 NONAME
	_ZN20NmBaseViewScrollArea23handleMouseReleaseEventEP24QGraphicsSceneMouseEvent @ 73 NONAME
	_ZN20NmBaseViewScrollAreaC1EP13QGraphicsItem @ 74 NONAME
	_ZN20NmBaseViewScrollAreaC2EP13QGraphicsItem @ 75 NONAME
	_ZN20NmBaseViewScrollAreaD0Ev @ 76 NONAME
	_ZN20NmBaseViewScrollAreaD1Ev @ 77 NONAME
	_ZN20NmBaseViewScrollAreaD2Ev @ 78 NONAME
	_ZN22NmAttachmentListWidget11constructUiEv @ 79 NONAME
	_ZN22NmAttachmentListWidget11longPressedEi7QPointF @ 80 NONAME
	_ZN22NmAttachmentListWidget11qt_metacallEN11QMetaObject4CallEiPPv @ 81 NONAME
	_ZN22NmAttachmentListWidget11qt_metacastEPKc @ 82 NONAME
	_ZN22NmAttachmentListWidget12setTextColorE6QColor @ 83 NONAME
	_ZN22NmAttachmentListWidget13itemActivatedEi @ 84 NONAME
	_ZN22NmAttachmentListWidget15hideProgressBarEi @ 85 NONAME
	_ZN22NmAttachmentListWidget15rearrangeLayoutEv @ 86 NONAME
	_ZN22NmAttachmentListWidget16insertAttachmentEiRK7QStringS2_ @ 87 NONAME
	_ZN22NmAttachmentListWidget16removeAttachmentEi @ 88 NONAME
	_ZN22NmAttachmentListWidget16staticMetaObjectE @ 89 NONAME DATA 16
	_ZN22NmAttachmentListWidget17handleLongPressedE7QPointF @ 90 NONAME
	_ZN22NmAttachmentListWidget17setAttachmentSizeEiRK7QString @ 91 NONAME
	_ZN22NmAttachmentListWidget18insertItemToLayoutEP20NmAttachmentListItem @ 92 NONAME
	_ZN22NmAttachmentListWidget18orientationChangedEN2Qt11OrientationE @ 93 NONAME
	_ZN22NmAttachmentListWidget19getStaticMetaObjectEv @ 94 NONAME
	_ZN22NmAttachmentListWidget19handleItemActivatedEv @ 95 NONAME
	_ZN22NmAttachmentListWidget19setProgressBarValueEii @ 96 NONAME
	_ZN22NmAttachmentListWidget4initEv @ 97 NONAME
	_ZN22NmAttachmentListWidget5paintEP8QPainterPK24QStyleOptionGraphicsItemP7QWidget @ 98 NONAME
	_ZN22NmAttachmentListWidget8findItemEPK7QObject @ 99 NONAME
	_ZN22NmAttachmentListWidgetC1EP13QGraphicsItem @ 100 NONAME
	_ZN22NmAttachmentListWidgetC2EP13QGraphicsItem @ 101 NONAME
	_ZN22NmAttachmentListWidgetD0Ev @ 102 NONAME
	_ZN22NmAttachmentListWidgetD1Ev @ 103 NONAME
	_ZN22NmAttachmentListWidgetD2Ev @ 104 NONAME
	_ZNK14NmHtmlLineEdit10metaObjectEv @ 105 NONAME
	_ZNK14NmHtmlLineEdit10textCursorEv @ 106 NONAME
	_ZNK14NmHtmlLineEdit11toPlainTextEv @ 107 NONAME
	_ZNK14NmHtmlLineEdit6toHtmlEv @ 108 NONAME
	_ZNK14NmHtmlLineEdit8documentEv @ 109 NONAME
	_ZNK16NmEditorTextEdit10metaObjectEv @ 110 NONAME
	_ZNK16NmEditorTextEdit15customTextColorEv @ 111 NONAME
	_ZNK19NmRecipientLineEdit10metaObjectEv @ 112 NONAME
	_ZNK20NmAttachmentListItem10metaObjectEv @ 113 NONAME
	_ZNK20NmAttachmentListItem16progressBarValueEv @ 114 NONAME
	_ZNK20NmBaseViewScrollArea10metaObjectEv @ 115 NONAME
	_ZNK22NmAttachmentListWidget10metaObjectEv @ 116 NONAME
	_ZNK22NmAttachmentListWidget13progressValueEi @ 117 NONAME
	_ZNK22NmAttachmentListWidget5countEv @ 118 NONAME
	_ZTI14NmHtmlLineEdit @ 119 NONAME
	_ZTI16NmEditorTextEdit @ 120 NONAME
	_ZTI19NmRecipientLineEdit @ 121 NONAME
	_ZTI20NmAttachmentListItem @ 122 NONAME
	_ZTI20NmBaseViewScrollArea @ 123 NONAME
	_ZTI22NmAttachmentListWidget @ 124 NONAME
	_ZTV14NmHtmlLineEdit @ 125 NONAME
	_ZTV16NmEditorTextEdit @ 126 NONAME
	_ZTV19NmRecipientLineEdit @ 127 NONAME
	_ZTV20NmAttachmentListItem @ 128 NONAME
	_ZTV20NmBaseViewScrollArea @ 129 NONAME
	_ZTV22NmAttachmentListWidget @ 130 NONAME
	_ZThn16_N14NmHtmlLineEditD0Ev @ 131 NONAME
	_ZThn16_N14NmHtmlLineEditD1Ev @ 132 NONAME
	_ZThn16_N16NmEditorTextEditD0Ev @ 133 NONAME
	_ZThn16_N16NmEditorTextEditD1Ev @ 134 NONAME
	_ZThn16_N19NmRecipientLineEditD0Ev @ 135 NONAME
	_ZThn16_N19NmRecipientLineEditD1Ev @ 136 NONAME
	_ZThn16_N20NmAttachmentListItemD0Ev @ 137 NONAME
	_ZThn16_N20NmAttachmentListItemD1Ev @ 138 NONAME
	_ZThn16_N20NmBaseViewScrollAreaD0Ev @ 139 NONAME
	_ZThn16_N20NmBaseViewScrollAreaD1Ev @ 140 NONAME
	_ZThn16_N22NmAttachmentListWidgetD0Ev @ 141 NONAME
	_ZThn16_N22NmAttachmentListWidgetD1Ev @ 142 NONAME
	_ZThn8_N14NmHtmlLineEditD0Ev @ 143 NONAME
	_ZThn8_N14NmHtmlLineEditD1Ev @ 144 NONAME
	_ZThn8_N16NmEditorTextEditD0Ev @ 145 NONAME
	_ZThn8_N16NmEditorTextEditD1Ev @ 146 NONAME
	_ZThn8_N19NmRecipientLineEdit13keyPressEventEP9QKeyEvent @ 147 NONAME
	_ZThn8_N19NmRecipientLineEdit16inputMethodEventEP17QInputMethodEvent @ 148 NONAME
	_ZThn8_N19NmRecipientLineEditD0Ev @ 149 NONAME
	_ZThn8_N19NmRecipientLineEditD1Ev @ 150 NONAME
	_ZThn8_N20NmAttachmentListItemD0Ev @ 151 NONAME
	_ZThn8_N20NmAttachmentListItemD1Ev @ 152 NONAME
	_ZThn8_N20NmBaseViewScrollArea14mouseMoveEventEP24QGraphicsSceneMouseEvent @ 153 NONAME
	_ZThn8_N20NmBaseViewScrollArea15mousePressEventEP24QGraphicsSceneMouseEvent @ 154 NONAME
	_ZThn8_N20NmBaseViewScrollArea17mouseReleaseEventEP24QGraphicsSceneMouseEvent @ 155 NONAME
	_ZThn8_N20NmBaseViewScrollAreaD0Ev @ 156 NONAME
	_ZThn8_N20NmBaseViewScrollAreaD1Ev @ 157 NONAME
	_ZThn8_N22NmAttachmentListWidget5paintEP8QPainterPK24QStyleOptionGraphicsItemP7QWidget @ 158 NONAME
	_ZThn8_N22NmAttachmentListWidgetD0Ev @ 159 NONAME
	_ZThn8_N22NmAttachmentListWidgetD1Ev @ 160 NONAME

