EXPORTS
	_ZN10CESMRField10ConstructLEP11CCoeControl @ 1 NONAME
	_ZN10CESMRField10SetFieldIdE17TESMREntryFieldId @ 2 NONAME
	_ZN10CESMRField11InitializeLEv @ 3 NONAME
	_ZN10CESMRField11MinimumSizeEv @ 4 NONAME
	_ZN10CESMRField11SizeChangedEv @ 5 NONAME
	_ZN10CESMRField12ExternalizeLER13MESMRCalEntry @ 6 NONAME
	_ZN10CESMRField12FontChangedLEv @ 7 NONAME
	_ZN10CESMRField12InternalizeLER13MESMRCalEntry @ 8 NONAME
	_ZN10CESMRField12NotifyEventLERK15MESMRFieldEvent @ 9 NONAME
	_ZN10CESMRField12NotifyEventLEi @ 10 NONAME
	_ZN10CESMRField12SetFieldModeE14TESMRFieldMode @ 11 NONAME
	_ZN10CESMRField12SetFocusRectERK5TRect @ 12 NONAME
	_ZN10CESMRField12SetFocusTypeE19TESMRFieldFocusType @ 13 NONAME
	_ZN10CESMRField13SetValidatorLEP19MESMRFieldValidator @ 14 NONAME
	_ZN10CESMRField14OfferKeyEventLERK9TKeyEvent10TEventCode @ 15 NONAME
	_ZN10CESMRField14OkToLoseFocusLE17TESMREntryFieldId @ 16 NONAME
	_ZN10CESMRField14SetEventQueueLEP20MESMRFieldEventQueue @ 17 NONAME
	_ZN10CESMRField15ListObserverSetEv @ 18 NONAME
	_ZN10CESMRField15SetListObserverEP17MESMRListObserver @ 19 NONAME
	_ZN10CESMRField15SetPreItemIndexEi @ 20 NONAME
	_ZN10CESMRField16DynInitMenuPaneLEiP12CEikMenuPane @ 21 NONAME
	_ZN10CESMRField16LongtapDetectedLERK6TPoint @ 22 NONAME
	_ZN10CESMRField16SetFieldViewModeE14TESMRFieldType @ 23 NONAME
	_ZN10CESMRField16SetOutlineFocusLEi @ 24 NONAME
	_ZN10CESMRField17HandleFieldEventLERK15MESMRFieldEvent @ 25 NONAME
	_ZN10CESMRField17NotifyEventAsyncLEP15MESMRFieldEvent @ 26 NONAME
	_ZN10CESMRField17NotifyEventAsyncLEi @ 27 NONAME
	_ZN10CESMRField17UpdateExtControlLEP11CCoeControl @ 28 NONAME
	_ZN10CESMRField19HandleLongtapEventLERK6TPoint @ 29 NONAME
	_ZN10CESMRField19HandlePointerEventLERK13TPointerEvent @ 30 NONAME
	_ZN10CESMRField19SetContainerWindowLERK11CCoeControl @ 31 NONAME
	_ZN10CESMRField19SetCurrentItemIndexEi @ 32 NONAME
	_ZN10CESMRField20ChangeMiddleSoftKeyLEi @ 33 NONAME
	_ZN10CESMRField20ChangeMiddleSoftKeyLEii @ 34 NONAME
	_ZN10CESMRField20SetTitlePaneObserverEP22MESMRTitlePaneObserver @ 35 NONAME
	_ZN10CESMRField21HandleSingletapEventLERK6TPoint @ 36 NONAME
	_ZN10CESMRField21RestoreMiddleSoftKeyLEv @ 37 NONAME
	_ZN10CESMRField22ExecuteGenericCommandLEi @ 38 NONAME
	_ZN10CESMRField22HandleRawPointerEventLERK13TPointerEvent @ 39 NONAME
	_ZN10CESMRField22HandleTactileFeedbackLEv @ 40 NONAME
	_ZN10CESMRField23SetMiddleSoftKeyVisibleEi @ 41 NONAME
	_ZN10CESMRField24GetCursorLineVerticalPosERiS0_ @ 42 NONAME
	_ZN10CESMRField29GetMinimumVisibleVerticalAreaERiS0_ @ 43 NONAME
	_ZN10CESMRField5LockLEv @ 44 NONAME
	_ZN10CESMRField8IsLockedEv @ 45 NONAME
	_ZN10CESMRFieldC1Ev @ 46 NONAME
	_ZN10CESMRFieldC2Ev @ 47 NONAME
	_ZN10CESMRFieldD0Ev @ 48 NONAME
	_ZN10CESMRFieldD1Ev @ 49 NONAME
	_ZN10CESMRFieldD2Ev @ 50 NONAME
	_ZN11CESMREditor11DefaultTextEv @ 51 NONAME
	_ZN11CESMREditor12FocusChangedE8TDrawNow @ 52 NONAME
	_ZN11CESMREditor14OfferKeyEventLERK9TKeyEvent10TEventCode @ 53 NONAME
	_ZN11CESMREditor15PositionChangedEv @ 54 NONAME
	_ZN11CESMREditor15SetDefaultTextLEP7HBufC16 @ 55 NONAME
	_ZN11CESMREditor15SetListObserverEP17MESMRListObserver @ 56 NONAME
	_ZN11CESMREditor17CurrentLineNumberEv @ 57 NONAME
	_ZN11CESMREditor17HandleEdwinEventLEP9CEikEdwinN17MEikEdwinObserver11TEdwinEventE @ 58 NONAME
	_ZN11CESMREditor25ClearSelectionAndSetTextLERK7TDesC16 @ 59 NONAME
	_ZN11CESMREditor4NewLEPK11CCoeControliii @ 60 NONAME
	_ZN11CESMREditor4NewLEv @ 61 NONAME
	_ZN11CESMREditor8SetFontLEPK5CFont @ 62 NONAME
	_ZN11CESMREditor9RowHeightEv @ 63 NONAME
	_ZN11CESMREditorD0Ev @ 64 NONAME
	_ZN11CESMREditorD1Ev @ 65 NONAME
	_ZN11CESMREditorD2Ev @ 66 NONAME
	_ZN13CMRBackground4NewLEv @ 67 NONAME
	_ZN13CMRBackgroundD0Ev @ 68 NONAME
	_ZN13CMRBackgroundD1Ev @ 69 NONAME
	_ZN13CMRBackgroundD2Ev @ 70 NONAME
	_ZN15CMRAttachmentUi11SetObserverER23MMRAttachmentUiObserver @ 71 NONAME
	_ZN15CMRAttachmentUi13LaunchFetchUiER13MESMRCalEntry @ 72 NONAME
	_ZN15CMRAttachmentUi14LaunchViewerUiER13MESMRCalEntry @ 73 NONAME
	_ZN15CMRAttachmentUi21LatestOperationResultEv @ 74 NONAME
	_ZN15CMRAttachmentUi4NewLEv @ 75 NONAME
	_ZN15CMRAttachmentUiD0Ev @ 76 NONAME
	_ZN15CMRAttachmentUiD1Ev @ 77 NONAME
	_ZN15CMRAttachmentUiD2Ev @ 78 NONAME
	_ZN17CESMRRichTextLink11SetStartPosEi @ 79 NONAME
	_ZN17CESMRRichTextLink4NewLEiiRK7TDesC16NS_5TTypeENS_11TTriggerKeyE @ 80 NONAME
	_ZN17CESMRRichTextLinkD0Ev @ 81 NONAME
	_ZN17CESMRRichTextLinkD1Ev @ 82 NONAME
	_ZN17CESMRRichTextLinkD2Ev @ 83 NONAME
	_ZN19CESMRRichTextViewer10SetMarginsEi @ 84 NONAME
	_ZN19CESMRRichTextViewer11InsertLinkLEP17CESMRRichTextLinki @ 85 NONAME
	_ZN19CESMRRichTextViewer12FocusChangedE8TDrawNow @ 86 NONAME
	_ZN19CESMRRichTextViewer13LinkSelectedLEv @ 87 NONAME
	_ZN19CESMRRichTextViewer13SetEventQueueEP20MESMRFieldEventQueue @ 88 NONAME
	_ZN19CESMRRichTextViewer14OfferKeyEventLERK9TKeyEvent10TEventCode @ 89 NONAME
	_ZN19CESMRRichTextViewer15PositionChangedEv @ 90 NONAME
	_ZN19CESMRRichTextViewer15SetLineSpacingLEi @ 91 NONAME
	_ZN19CESMRRichTextViewer15SetLinkObserverEP21MESMRRichTextObserver @ 92 NONAME
	_ZN19CESMRRichTextViewer15SetListObserverEP17MESMRListObserver @ 93 NONAME
	_ZN19CESMRRichTextViewer17CurrentLineNumberEv @ 94 NONAME
	_ZN19CESMRRichTextViewer19ApplyLayoutChangesLEv @ 95 NONAME
	_ZN19CESMRRichTextViewer4NewLEPK11CCoeControl @ 96 NONAME
	_ZN19CESMRRichTextViewer8AddLinkLEP17CESMRRichTextLink @ 97 NONAME
	_ZN19CESMRRichTextViewer8SetFontLEPK5CFont @ 98 NONAME
	_ZN19CESMRRichTextViewer8SetTextLEPK7TDesC16i @ 99 NONAME
	_ZN19CESMRRichTextViewer9LineCountEv @ 100 NONAME
	_ZN19CESMRRichTextViewer9RowHeightEv @ 101 NONAME
	_ZN19CESMRRichTextViewerD0Ev @ 102 NONAME
	_ZN19CESMRRichTextViewerD1Ev @ 103 NONAME
	_ZN19CESMRRichTextViewerD2Ev @ 104 NONAME
	_ZNK10CESMRField12GetFocusRectEv @ 105 NONAME
	_ZNK10CESMRField12GetFocusTypeEv @ 106 NONAME
	_ZNK10CESMRField12PreItemIndexEv @ 107 NONAME
	_ZNK10CESMRField13EventObserverEv @ 108 NONAME
	_ZNK10CESMRField13FieldViewModeEv @ 109 NONAME
	_ZNK10CESMRField15HasOutlineFocusEv @ 110 NONAME
	_ZNK10CESMRField16ComponentControlEi @ 111 NONAME
	_ZNK10CESMRField16CurrentItemIndexEv @ 112 NONAME
	_ZNK10CESMRField16IsFieldActivatedEv @ 113 NONAME
	_ZNK10CESMRField22CountComponentControlsEv @ 114 NONAME
	_ZNK10CESMRField7FieldIdEv @ 115 NONAME
	_ZNK10CESMRField9FieldModeEv @ 116 NONAME
	_ZNK11CESMREditor13CursorLinePosEv @ 117 NONAME
	_ZNK11CESMREditor14GetLimitLengthEv @ 118 NONAME
	_ZNK11CESMREditor9LineCountEv @ 119 NONAME
	_ZNK13CMRBackground4DrawER9CWindowGcRK11CCoeControlRK5TRect @ 120 NONAME
	_ZNK17CESMRRichTextLink10TriggerKeyEv @ 121 NONAME
	_ZNK17CESMRRichTextLink4TypeEv @ 122 NONAME
	_ZNK17CESMRRichTextLink5ValueEv @ 123 NONAME
	_ZNK17CESMRRichTextLink6LengthEv @ 124 NONAME
	_ZNK17CESMRRichTextLink8StartPosEv @ 125 NONAME
	_ZNK19CESMRRichTextViewer13GetLinkTextLCERK17CESMRRichTextLink @ 126 NONAME
	_ZNK19CESMRRichTextViewer15GetSelectedLinkEv @ 127 NONAME
	_ZNK19CESMRRichTextViewer16ResetActionMenuLEv @ 128 NONAME
	_ZNK19CESMRRichTextViewer27CopyCurrentLinkToClipBoardLEv @ 129 NONAME
	_ZTI10CESMRField @ 130 NONAME
	_ZTV10CESMRField @ 131 NONAME
	_ZThn12_N15CMRAttachmentUiD0Ev @ 132 NONAME
	_ZThn12_N15CMRAttachmentUiD1Ev @ 133 NONAME
	_ZThn340_N11CESMREditor17HandleEdwinEventLEP9CEikEdwinN17MEikEdwinObserver11TEdwinEventE @ 134 NONAME
	_ZThn348_N19CESMRRichTextViewerD0Ev @ 135 NONAME
	_ZThn348_N19CESMRRichTextViewerD1Ev @ 136 NONAME
	_ZThn4_NK13CMRBackground4DrawER9CWindowGcRK11CCoeControlRK5TRect @ 137 NONAME
	_ZThn52_N10CESMRField17HandleFieldEventLERK15MESMRFieldEvent @ 138 NONAME
	_ZThn52_N10CESMRFieldD0Ev @ 139 NONAME
	_ZThn52_N10CESMRFieldD1Ev @ 140 NONAME
	_ZThn56_N10CESMRField14SetEventQueueLEP20MESMRFieldEventQueue @ 141 NONAME
	_ZThn56_N10CESMRFieldD0Ev @ 142 NONAME
	_ZThn56_N10CESMRFieldD1Ev @ 143 NONAME
	_ZThn56_NK10CESMRField13EventObserverEv @ 144 NONAME
	_ZThn8_N15CMRAttachmentUiD0Ev @ 145 NONAME
	_ZThn8_N15CMRAttachmentUiD1Ev @ 146 NONAME
	_ZN19CESMRRichTextViewer12SetFocusLinkEi @ 147 NONAME
	_ZNK19CESMRRichTextViewer12GetFocusLinkEv @ 148 NONAME
	_ZN10CESMRField29SupportsLongTapFunctionalityLERK13TPointerEvent @ 149 NONAME
	_ZN19CESMRRichTextViewer27PointerEventOccuresOnALinkLERK13TPointerEvent @ 150 NONAME
	_ZN10CESMRField11RecordFieldEv @ 151 NONAME
	_ZN10CESMRField12MoveToScreenEi @ 152 NONAME
	_ZNK10CESMRField4DrawERK5TRect @ 153 NONAME

