EXPORTS
	_ZN10CMyPicture13GetBitmapMaskEv @ 1 NONAME
	_ZN10CMyPicture22SetOriginalSizeInTwipsE5TSize @ 2 NONAME
	_ZN10CMyPicture9GetBitmapEv @ 3 NONAME
	_ZN10CMyPictureC1E5TSizeR10CFbsBitmap @ 4 NONAME
	_ZN10CMyPictureC1E5TSizeR10CFbsBitmapS2_ @ 5 NONAME
	_ZN10CMyPictureC2E5TSizeR10CFbsBitmap @ 6 NONAME
	_ZN10CMyPictureC2E5TSizeR10CFbsBitmapS2_ @ 7 NONAME
	_ZN10CMyPictureD0Ev @ 8 NONAME
	_ZN10CMyPictureD1Ev @ 9 NONAME
	_ZN10CMyPictureD2Ev @ 10 NONAME
	_ZN11CFsRichText10SetExpandLEiii @ 11 NONAME
	_ZN11CFsRichText11SetHotSpotLEiii @ 12 NONAME
	_ZN11CFsRichText11SetPictureLE4TBufILi256EEi @ 13 NONAME
	_ZN11CFsRichText14GetExpandAreaLEi @ 14 NONAME
	_ZN11CFsRichText15GetHotSpotAreaLEi @ 15 NONAME
	_ZN11CFsRichText15GetPictureAreaLEi @ 16 NONAME
	_ZN11CFsRichText18GetNumberOfPictureEv @ 17 NONAME
	_ZN11CFsRichText22GetNumberOfExpandAreasEv @ 18 NONAME
	_ZN11CFsRichText23GetNumberOfHotSpotAreasEv @ 19 NONAME
	_ZN11CFsRichText4NewLEPK16CParaFormatLayerPK16CCharFormatLayerN13CEditableText16TDocumentStorageEiN9CRichText9TParaTypeE @ 20 NONAME
	_ZN11CFsRichText4NewLEPK16CParaFormatLayerPK16CCharFormatLayerRK10CStyleListN13CEditableText16TDocumentStorageEiN9CRichText9TParaTypeE @ 21 NONAME
	_ZN11CFsRichText4NewLERK12CStreamStore9TStreamIdPK16CParaFormatLayerPK16CCharFormatLayerP15MPictureFactoryP22MRichTextStoreResolverP17MTextFieldFactoryN13CEditableText16TDocumentStorageE @ 22 NONAME
	_ZN11CFsRichText4NewLERK12CStreamStore9TStreamIdPK16CParaFormatLayerPK16CCharFormatLayerP17MTextFieldFactoryN13CEditableText16TDocumentStorageE @ 23 NONAME
	_ZN11CFsRichText5ResetEv @ 24 NONAME
	_ZN11CFsRichTextD0Ev @ 25 NONAME
	_ZN11CFsRichTextD1Ev @ 26 NONAME
	_ZN11CFsRichTextD2Ev @ 27 NONAME
	_ZN11CFsTreeItem4NewLER11CFsTreeNodeR15MFsTreeItemDataR21MFsTreeItemVisualizer @ 28 NONAME
	_ZN11CFsTreeItem5NewLCER11CFsTreeNodeR15MFsTreeItemDataR21MFsTreeItemVisualizer @ 29 NONAME
	_ZN11CFsTreeList10ConstructLER7CAlfEnv @ 30 NONAME
	_ZN11CFsTreeList10IsExpandedEi @ 31 NONAME
	_ZN11CFsTreeList10RemoveAllLEv @ 32 NONAME
	_ZN11CFsTreeList10SetBorderLEiP11CAlfTexture @ 33 NONAME
	_ZN11CFsTreeList10SetShadowLEi @ 34 NONAME
	_ZN11CFsTreeList11ExpandNodeLEi @ 35 NONAME
	_ZN11CFsTreeList11InsertItemLER15MFsTreeItemDataR21MFsTreeItemVisualizeriii @ 36 NONAME
	_ZN11CFsTreeList11InsertNodeLER15MFsTreeItemDataR21MFsTreeNodeVisualizeriii @ 37 NONAME
	_ZN11CFsTreeList11SetFocusedLEi @ 38 NONAME
	_ZN11CFsTreeList12AddObserverLER19MFsTreeListObserver @ 39 NONAME
	_ZN11CFsTreeList12SetItemDataLER15MFsTreeItemDatai @ 40 NONAME
	_ZN11CFsTreeList12SetMarkTypeLENS_19TFsTreeListMarkTypeE @ 41 NONAME
	_ZN11CFsTreeList13CollapseNodeLEi @ 42 NONAME
	_ZN11CFsTreeList13GetScrollTimeERiRd @ 43 NONAME
	_ZN11CFsTreeList13SetScrollTimeEid @ 44 NONAME
	_ZN11CFsTreeList14RemoveObserverER19MFsTreeListObserver @ 45 NONAME
	_ZN11CFsTreeList14SetLoopingTypeE22TFsTreeListLoopingType @ 46 NONAME
	_ZN11CFsTreeList14SetScrollBarsLENS_21TFsTreeListScrollbarsE @ 47 NONAME
	_ZN11CFsTreeList15RemoveChildrenLEi @ 48 NONAME
	_ZN11CFsTreeList15SetFocusedItemLEi @ 49 NONAME
	_ZN11CFsTreeList15SetIndentationLEi @ 50 NONAME
	_ZN11CFsTreeList16FadeInEffectTimeEv @ 51 NONAME
	_ZN11CFsTreeList17FadeOutEffectTimeEv @ 52 NONAME
	_ZN11CFsTreeList17SetTreeVisualizerER21CFsTreeVisualizerBase @ 53 NONAME
	_ZN11CFsTreeList18SetDirectTouchModeEi @ 54 NONAME
	_ZN11CFsTreeList18SetItemVisualizerLER21MFsTreeItemVisualizeri @ 55 NONAME
	_ZN11CFsTreeList18SetSlideInDurationEi @ 56 NONAME
	_ZN11CFsTreeList18SetTextMarqueeTypeE18TFsTextMarqueeType @ 57 NONAME
	_ZN11CFsTreeList19SetFadeInEffectTimeEi @ 58 NONAME
	_ZN11CFsTreeList19SetSlideInDirectionEN17MFsTreeVisualizer14TFsSlideEffectE @ 59 NONAME
	_ZN11CFsTreeList19SetSlideOutDurationEi @ 60 NONAME
	_ZN11CFsTreeList19SetTextMarqueeSpeedEi @ 61 NONAME
	_ZN11CFsTreeList20SetFadeOutEffectTimeEi @ 62 NONAME
	_ZN11CFsTreeList20SetSlideOutDirectionEN17MFsTreeVisualizer14TFsSlideEffectE @ 63 NONAME
	_ZN11CFsTreeList21IsItemsAlwaysExtendedEv @ 64 NONAME
	_ZN11CFsTreeList23SetItemsAlwaysExtendedLEi @ 65 NONAME
	_ZN11CFsTreeList23SetScrollbarVisibilityLE22TFsScrollbarVisibility @ 66 NONAME
	_ZN11CFsTreeList24GetItemDisplayRectTargetEiR12TAlfRealRect @ 67 NONAME
	_ZN11CFsTreeList24SetTextMarqueeStartDelayEi @ 68 NONAME
	_ZN11CFsTreeList25SetTextMarqueeRepetitionsEi @ 69 NONAME
	_ZN11CFsTreeList29SetTextMarqueeCycleStartDelayEi @ 70 NONAME
	_ZN11CFsTreeList4NewLER21CFsTreeVisualizerBaseR7CAlfEnv @ 71 NONAME
	_ZN11CFsTreeList7RemoveLEi @ 72 NONAME
	_ZN11CFsTreeList8ItemMenuEi @ 73 NONAME
	_ZN11CFsTreeList9HideListLEii @ 74 NONAME
	_ZN11CFsTreeList9MarkItemLEii @ 75 NONAME
	_ZN11CFsTreeList9MoveItemLEiii @ 76 NONAME
	_ZN11CFsTreeList9ShowListLEii @ 77 NONAME
	_ZN11CFsTreeListC1ER7CAlfEnvR21CFsTreeVisualizerBase @ 78 NONAME
	_ZN11CFsTreeListC2ER7CAlfEnvR21CFsTreeVisualizerBase @ 79 NONAME
	_ZN11CFsTreeListD0Ev @ 80 NONAME
	_ZN11CFsTreeListD1Ev @ 81 NONAME
	_ZN11CFsTreeListD2Ev @ 82 NONAME
	_ZN11CFsTreeNode4NewLERS_R15MFsTreeItemDataR21MFsTreeNodeVisualizer @ 83 NONAME
	_ZN13CFsActionMenu10ConstructLEi @ 84 NONAME
	_ZN13CFsActionMenu10SetBorderLEiP11CAlfTexture @ 85 NONAME
	_ZN13CFsActionMenu14ActionMenuSizeEv @ 86 NONAME
	_ZN13CFsActionMenu20ButtonGroupContainerEv @ 87 NONAME
	_ZN13CFsActionMenu4NewLER11CAlfDisplayi @ 88 NONAME
	_ZN13CFsActionMenu8ExecuteLE22TFsVActionMenuPosition @ 89 NONAME
	_ZN13CFsActionMenu8ExecuteLEi @ 90 NONAME
	_ZN13CFsActionMenuC1ER11CAlfDisplay @ 91 NONAME
	_ZN13CFsActionMenuC2ER11CAlfDisplay @ 92 NONAME
	_ZN13CFsActionMenuD0Ev @ 93 NONAME
	_ZN13CFsActionMenuD1Ev @ 94 NONAME
	_ZN13CFsActionMenuD2Ev @ 95 NONAME
	_ZN13CFsControlBar10AddButtonLE20TFsControlButtonType @ 96 NONAME
	_ZN13CFsControlBar10AddButtonLEi20TFsControlButtonType @ 97 NONAME
	_ZN13CFsControlBar10ButtonByIdEi @ 98 NONAME
	_ZN13CFsControlBar10SetHeightLEi @ 99 NONAME
	_ZN13CFsControlBar11EnableTouchEi @ 100 NONAME
	_ZN13CFsControlBar12AddObserverLER21MFsControlBarObserver @ 101 NONAME
	_ZN13CFsControlBar13RemoveButtonLEi @ 102 NONAME
	_ZN13CFsControlBar13SetFocusByIdLEi @ 103 NONAME
	_ZN13CFsControlBar14RemoveObserverER21MFsControlBarObserver @ 104 NONAME
	_ZN13CFsControlBar17SetSelectorImageLEP9CAlfBrushf @ 105 NONAME
	_ZN13CFsControlBar18SetBackgroundColorERK4TRgb @ 106 NONAME
	_ZN13CFsControlBar19SetBackgroundImageLER11CAlfTexture @ 107 NONAME
	_ZN13CFsControlBar20ClearBackgroundColorEv @ 108 NONAME
	_ZN13CFsControlBar20ClearBackgroundImageEv @ 109 NONAME
	_ZN13CFsControlBar26SetSelectorTransitionTimeLEi @ 110 NONAME
	_ZN13CFsControlBar4NewLER7CAlfEnv @ 111 NONAME
	_ZN13CFsControlBar5NewLCER7CAlfEnv @ 112 NONAME
	_ZN13CFsControlBar6VisualEv @ 113 NONAME
	_ZN13CFsControlBar9SetFocusLEi @ 114 NONAME
	_ZN13CFsControlBar9SetWidthLEi @ 115 NONAME
	_ZN13CFsTextViewer10FocusLineLEii @ 116 NONAME
	_ZN13CFsTextViewer10RootLayoutEv @ 117 NONAME
	_ZN13CFsTextViewer11ReloadTextLEv @ 118 NONAME
	_ZN13CFsTextViewer11SetObserverEP21MFsTextViewerObserver @ 119 NONAME
	_ZN13CFsTextViewer12CursorUpDownEv @ 120 NONAME
	_ZN13CFsTextViewer12ReplaceTextLEP11CFsRichTextP19CFsSmileyDictionary @ 121 NONAME
	_ZN13CFsTextViewer12SetMirroringEi @ 122 NONAME
	_ZN13CFsTextViewer13EnableSmileysEi @ 123 NONAME
	_ZN13CFsTextViewer13GetLineNumberEi @ 124 NONAME
	_ZN13CFsTextViewer13GetMarkedAreaERiS0_ @ 125 NONAME
	_ZN13CFsTextViewer13GetTotalLinesEv @ 126 NONAME
	_ZN13CFsTextViewer13SetCustomKeysEP17CFsTextViewerKeys @ 127 NONAME
	_ZN13CFsTextViewer13SetLeftMarginEi @ 128 NONAME
	_ZN13CFsTextViewer13SetLiteLineBgER11CAlfTexturef @ 129 NONAME
	_ZN13CFsTextViewer13SetSmileySizeE5TSize @ 130 NONAME
	_ZN13CFsTextViewer13SetWatermarkLEP22CFsTextViewerWatermark @ 131 NONAME
	_ZN13CFsTextViewer14SetCursorDelayEi @ 132 NONAME
	_ZN13CFsTextViewer14SetRightMarginEi @ 133 NONAME
	_ZN13CFsTextViewer14SetScrollDelayEi @ 134 NONAME
	_ZN13CFsTextViewer15GetStatusLayoutEv @ 135 NONAME
	_ZN13CFsTextViewer15ReloadPicturesLEi @ 136 NONAME
	_ZN13CFsTextViewer15RemoveEndLinesLEi @ 137 NONAME
	_ZN13CFsTextViewer15SetActionButtonER11CAlfTexturef @ 138 NONAME
	_ZN13CFsTextViewer15SetPartBgColorLEiiRK4TRgb @ 139 NONAME
	_ZN13CFsTextViewer15SetPartBgImageLEiiR11CAlfTexture @ 140 NONAME
	_ZN13CFsTextViewer18EnableCursorUpDownEi @ 141 NONAME
	_ZN13CFsTextViewer18GetCurrentHotspotLERiS0_ @ 142 NONAME
	_ZN13CFsTextViewer18GetFirstCharInLineEi @ 143 NONAME
	_ZN13CFsTextViewer18RemoveStatusLayoutEv @ 144 NONAME
	_ZN13CFsTextViewer18UpdateStatusLayoutEv @ 145 NONAME
	_ZN13CFsTextViewer19SetActionButtonSizeEff @ 146 NONAME
	_ZN13CFsTextViewer19SetBackgroundColorLERK4TRgb @ 147 NONAME
	_ZN13CFsTextViewer19SetBackgroundImageLER11CAlfTexture @ 148 NONAME
	_ZN13CFsTextViewer19SetScrollOffsetInPxEi @ 149 NONAME
	_ZN13CFsTextViewer20GetLastDisplayedLineEv @ 150 NONAME
	_ZN13CFsTextViewer20SetBackgroundOpacityERK14TAlfTimedValue @ 151 NONAME
	_ZN13CFsTextViewer21GetFirstDisplayedLineEv @ 152 NONAME
	_ZN13CFsTextViewer21SetActionButtonMarginEf @ 153 NONAME
	_ZN13CFsTextViewer22GetCurrentHotspotTextLEv @ 154 NONAME
	_ZN13CFsTextViewer22SetScrollOffsetInLinesEi @ 155 NONAME
	_ZN13CFsTextViewer24GetCurrentHotspotByOrderEv @ 156 NONAME
	_ZN13CFsTextViewer24SetCurrentHotspotByCharLEi @ 157 NONAME
	_ZN13CFsTextViewer25SetCurrentHotspotByOrderLEii @ 158 NONAME
	_ZN13CFsTextViewer45HideActionButtonFromCurrentHighlightedHotspotEv @ 159 NONAME
	_ZN13CFsTextViewer45ShowActionButtonForCurrentHighlightedHotspotLEv @ 160 NONAME
	_ZN13CFsTextViewer4HideEv @ 161 NONAME
	_ZN13CFsTextViewer4KeysEv @ 162 NONAME
	_ZN13CFsTextViewer4NewLER7CAlfEnv @ 163 NONAME
	_ZN13CFsTextViewer4ShowEv @ 164 NONAME
	_ZN13CFsTextViewer7SmileysEv @ 165 NONAME
	_ZN13CFsTextViewer8SetTextLEP11CFsRichTextP19CFsSmileyDictionary @ 166 NONAME
	_ZN13CFsTextViewerD0Ev @ 167 NONAME
	_ZN13CFsTextViewerD1Ev @ 168 NONAME
	_ZN13CFsTextViewerD2Ev @ 169 NONAME
	_ZN14CFsTreeControl11OfferEventLERK9TAlfEvent @ 170 NONAME
	_ZN14CFsTreeControl4NewLER7CAlfEnvR7CFsTreeR17MFsTreeVisualizer @ 171 NONAME
	_ZN16CFsLayoutManager10IsMirroredEv @ 172 NONAME
	_ZN16CFsLayoutManager17LayoutMetricsRectERK5TRectNS_16TFsLayoutMetricsERS0_iii @ 173 NONAME
	_ZN16CFsLayoutManager17LayoutMetricsSizeERK5TRectNS_16TFsLayoutMetricsER5TSizeiii @ 174 NONAME
	_ZN16CFsLayoutManager17LayoutMetricsTextERK5TRectNS_16TFsLayoutMetricsERNS_7TFsTextEii @ 175 NONAME
	_ZN16CFsLayoutManager21LayoutMetricsPositionERK5TRectNS_16TFsLayoutMetricsER6TPointiii @ 176 NONAME
	_ZN16CFsLayoutManagerC1Ev @ 177 NONAME
	_ZN16CFsLayoutManagerC2Ev @ 178 NONAME
	_ZN16CFsSeparatorData4NewLEv @ 179 NONAME
	_ZN17CFsTextViewerKeys10GetKeyDownEv @ 180 NONAME
	_ZN17CFsTextViewerKeys10GetKeyLeftEv @ 181 NONAME
	_ZN17CFsTextViewerKeys10GetKeyMarkEv @ 182 NONAME
	_ZN17CFsTextViewerKeys10GetKeyPgUpEv @ 183 NONAME
	_ZN17CFsTextViewerKeys10SetKeyDownEi @ 184 NONAME
	_ZN17CFsTextViewerKeys10SetKeyLeftEi @ 185 NONAME
	_ZN17CFsTextViewerKeys10SetKeyMarkEi @ 186 NONAME
	_ZN17CFsTextViewerKeys10SetKeyPgUpEi @ 187 NONAME
	_ZN17CFsTextViewerKeys11GetKeyClickEv @ 188 NONAME
	_ZN17CFsTextViewerKeys11GetKeyRightEv @ 189 NONAME
	_ZN17CFsTextViewerKeys11SetKeyClickEi @ 190 NONAME
	_ZN17CFsTextViewerKeys11SetKeyRightEi @ 191 NONAME
	_ZN17CFsTextViewerKeys12GetKeyPgDownEv @ 192 NONAME
	_ZN17CFsTextViewerKeys12SetKeyPgDownEi @ 193 NONAME
	_ZN17CFsTextViewerKeys14GetKeyScrollUpEv @ 194 NONAME
	_ZN17CFsTextViewerKeys14SetKeyScrollUpEi @ 195 NONAME
	_ZN17CFsTextViewerKeys16GetKeyScrollDownEv @ 196 NONAME
	_ZN17CFsTextViewerKeys16SetKeyScrollDownEi @ 197 NONAME
	_ZN17CFsTextViewerKeys4NewLEv @ 198 NONAME
	_ZN17CFsTextViewerKeys8GetKeyUpEv @ 199 NONAME
	_ZN17CFsTextViewerKeys8SetKeyUpEi @ 200 NONAME
	_ZN17CFsTextViewerKeysD0Ev @ 201 NONAME
	_ZN17CFsTextViewerKeysD1Ev @ 202 NONAME
	_ZN17CFsTextViewerKeysD2Ev @ 203 NONAME
	_ZN19CFsSmileyDictionary13AddNewSmileyLERK7TDesC164TBufILi256EE @ 204 NONAME
	_ZN19CFsSmileyDictionary4NewLEv @ 205 NONAME
	_ZN19CFsSmileyDictionaryD0Ev @ 206 NONAME
	_ZN19CFsSmileyDictionaryD1Ev @ 207 NONAME
	_ZN19CFsSmileyDictionaryD2Ev @ 208 NONAME
	_ZN19CFsTreeRichItemData4NewLEP11CFsRichText @ 209 NONAME
	_ZN20CFsMultiLineItemData4NewLEv @ 210 NONAME
	_ZN21CFsAlfScrollbarLayout10LayoutSizeEv @ 211 NONAME
	_ZN21CFsAlfScrollbarLayout10RangeStartE12TFsScrollbar @ 212 NONAME
	_ZN21CFsAlfScrollbarLayout12ScrollbarPosE12TFsScrollbar @ 213 NONAME
	_ZN21CFsAlfScrollbarLayout12SetThumbSpanEi12TFsScrollbar @ 214 NONAME
	_ZN21CFsAlfScrollbarLayout14VisibilityModeE12TFsScrollbar @ 215 NONAME
	_ZN21CFsAlfScrollbarLayout15SetScrollbarPosEi12TFsScrollbar @ 216 NONAME
	_ZN21CFsAlfScrollbarLayout17SetVisibilityModeE22TFsScrollbarVisibility12TFsScrollbar @ 217 NONAME
	_ZN21CFsAlfScrollbarLayout18IsScrollbarVisibleE12TFsScrollbar @ 218 NONAME
	_ZN21CFsAlfScrollbarLayout19SetScrollbarImagesLEP14CAlfImageBrushS1_12TFsScrollbar @ 219 NONAME
	_ZN21CFsAlfScrollbarLayout25SetVerticalScrollbarWidthEii @ 220 NONAME
	_ZN21CFsAlfScrollbarLayout28SetHorizontalScrollbarHeightEii @ 221 NONAME
	_ZN21CFsAlfScrollbarLayout6UpdateEi @ 222 NONAME
	_ZN21CFsAlfScrollbarLayout7AddNewLER11CAlfControlP10CAlfLayout @ 223 NONAME
	_ZN21CFsAlfScrollbarLayout8RangeEndE12TFsScrollbar @ 224 NONAME
	_ZN21CFsAlfScrollbarLayout8SetRangeEii12TFsScrollbar @ 225 NONAME
	_ZN21CFsAlfScrollbarLayout9ThumbSpanE12TFsScrollbar @ 226 NONAME
	_ZN21CFsTreeVisualizerBase13SetWatermarkLEP11CAlfTexture @ 227 NONAME
	_ZN21CFsTreeVisualizerBase15ClearBackgroundEv @ 228 NONAME
	_ZN21CFsTreeVisualizerBase15SetWatermarkPosERK6TPoint @ 229 NONAME
	_ZN21CFsTreeVisualizerBase16SetWatermarkSizeERK5TSize @ 230 NONAME
	_ZN21CFsTreeVisualizerBase19SetBackgroundBrushLEP9CAlfBrush @ 231 NONAME
	_ZN21CFsTreeVisualizerBase19SetBackgroundColorLE4TRgb @ 232 NONAME
	_ZN21CFsTreeVisualizerBase19SetWatermarkOpacityEf @ 233 NONAME
	_ZN21CFsTreeVisualizerBase21SetBackgroundTextureLER11CAlfTexture @ 234 NONAME
	_ZN21CFsTreeVisualizerBase4NewLEP11CAlfControlR10CAlfLayouti @ 235 NONAME
	_ZN22CFsSeparatorVisualizer4NewLER11CAlfControl @ 236 NONAME
	_ZN22CFsTextViewerWatermark4NewLER11CAlfTexturef @ 237 NONAME
	_ZN22CFsTextViewerWatermark4RectEv @ 238 NONAME
	_ZN22CFsTextViewerWatermark7SetRectE5TRect @ 239 NONAME
	_ZN22CFsTextViewerWatermarkD0Ev @ 240 NONAME
	_ZN22CFsTextViewerWatermarkD1Ev @ 241 NONAME
	_ZN22CFsTextViewerWatermarkD2Ev @ 242 NONAME
	_ZN23CFsControlBarVisualiser20ClearBackgroundColorEv @ 243 NONAME
	_ZN25CFsTreeRichItemVisualizer4NewLER11CAlfControlR22CFsAlfTextStyleManager @ 244 NONAME
	_ZN26CFsControlButtonVisualiser10ConstructLEv @ 245 NONAME
	_ZN26CFsControlButtonVisualiser11InitializeLER21CFsControlButtonModel @ 246 NONAME
	_ZN26CFsControlButtonVisualiser12SetTextAlignEP14CAlfTextVisual19TAlfAlignHorizontal17TAlfAlignVertical @ 247 NONAME
	_ZN26CFsControlButtonVisualiser12SetTextFontLERK9TFontSpec @ 248 NONAME
	_ZN26CFsControlButtonVisualiser13SetElemAlignLE20TFsControlButtonElem19TAlfAlignHorizontal17TAlfAlignVertical @ 249 NONAME
	_ZN26CFsControlButtonVisualiser13SetImageAlignEP15CAlfImageVisual19TAlfAlignHorizontal17TAlfAlignVertical @ 250 NONAME
	_ZN26CFsControlButtonVisualiser13SetTextHeightEi @ 251 NONAME
	_ZN26CFsControlButtonVisualiser14UpdateElementLE20TFsControlButtonElem @ 252 NONAME
	_ZN26CFsControlButtonVisualiser16UpdateButtonSizeEv @ 253 NONAME
	_ZN26CFsControlButtonVisualiser16UpdateTextStylesEv @ 254 NONAME
	_ZN26CFsControlButtonVisualiser17PrepareDrawDimmedEv @ 255 NONAME
	_ZN26CFsControlButtonVisualiser17PrepareDrawNormalEv @ 256 NONAME
	_ZN26CFsControlButtonVisualiser18PrepareDrawFocusedEv @ 257 NONAME
	_ZN26CFsControlButtonVisualiser18SetBackgroundColorERK4TRgb @ 258 NONAME
	_ZN26CFsControlButtonVisualiser19CalculateButtonSizeEv @ 259 NONAME
	_ZN26CFsControlButtonVisualiser19SetBackgroundImageLEP14CAlfImageBrush @ 260 NONAME
	_ZN26CFsControlButtonVisualiser19UpdateElementsSizeLE20TFsControlButtonType @ 261 NONAME
	_ZN26CFsControlButtonVisualiser20ClearBackgroundColorEv @ 262 NONAME
	_ZN26CFsControlButtonVisualiser20ClearBackgroundImageEv @ 263 NONAME
	_ZN26CFsControlButtonVisualiser20CreateButtonVisualsLEv @ 264 NONAME
	_ZN26CFsControlButtonVisualiser23TextureLoadingCompletedER11CAlfTextureii @ 265 NONAME
	_ZN26CFsControlButtonVisualiser4HideEv @ 266 NONAME
	_ZN26CFsControlButtonVisualiser5ShowLEv @ 267 NONAME
	_ZN26CFsControlButtonVisualiser7RefreshE6TPoint @ 268 NONAME
	_ZN26CFsControlButtonVisualiser7RefreshEv @ 269 NONAME
	_ZN26CFsControlButtonVisualiserC1ER11CAlfControlR14CAlfDeckLayoutP19CFsTextStyleManager @ 270 NONAME
	_ZN26CFsControlButtonVisualiserC1Ev @ 271 NONAME
	_ZN26CFsControlButtonVisualiserC2ER11CAlfControlR14CAlfDeckLayoutP19CFsTextStyleManager @ 272 NONAME
	_ZN26CFsControlButtonVisualiserC2Ev @ 273 NONAME
	_ZN26CFsControlButtonVisualiserD0Ev @ 274 NONAME
	_ZN26CFsControlButtonVisualiserD1Ev @ 275 NONAME
	_ZN26CFsControlButtonVisualiserD2Ev @ 276 NONAME
	_ZN26CFsMultiLineItemVisualizer4NewLER11CAlfControl @ 277 NONAME
	_ZN26CFsTreePlainRootVisualizer4NewLER11CAlfControl @ 278 NONAME
	_ZN27CFsTreePlainOneLineItemData4NewLEv @ 279 NONAME
	_ZN27CFsTreePlainOneLineNodeData4NewLEv @ 280 NONAME
	_ZN27CFsTreePlainTwoLineItemData4NewLEv @ 281 NONAME
	_ZN33CFsTreePlainOneLineItemVisualizer4NewLER11CAlfControl @ 282 NONAME
	_ZN33CFsTreePlainOneLineNodeVisualizer4NewLER11CAlfControl @ 283 NONAME
	_ZN33CFsTreePlainTwoLineItemVisualizer21SetSecondaryTextAlignE19TAlfAlignHorizontal @ 284 NONAME
	_ZN33CFsTreePlainTwoLineItemVisualizer4NewLER11CAlfControl @ 285 NONAME
	_ZN7CFsTree4NewLER15MFsTreeObserverR15MFsTreeItemDataR21MFsTreeNodeVisualizer @ 286 NONAME
	_ZNK10CMyPicture12ExternalizeLER12RWriteStream @ 287 NONAME
	_ZNK10CMyPicture22GetOriginalSizeInTwipsER5TSize @ 288 NONAME
	_ZNK10CMyPicture4DrawER16CGraphicsContextRK6TPointRK5TRectP18MGraphicsDeviceMap @ 289 NONAME
	_ZNK11CFsTreeList10ChildIndexEii @ 290 NONAME
	_ZNK11CFsTreeList11FocusedItemEv @ 291 NONAME
	_ZNK11CFsTreeList11IndentationEv @ 292 NONAME
	_ZNK11CFsTreeList11LoopingTypeEv @ 293 NONAME
	_ZNK11CFsTreeList11TreeControlEv @ 294 NONAME
	_ZNK11CFsTreeList13CountChildrenEi @ 295 NONAME
	_ZNK11CFsTreeList13HasScrollBarsEv @ 296 NONAME
	_ZNK11CFsTreeList14ItemVisualizerEi @ 297 NONAME
	_ZNK11CFsTreeList14TreeVisualizerEv @ 298 NONAME
	_ZNK11CFsTreeList15GetMarkedItemsLER6RArrayIiE @ 299 NONAME
	_ZNK11CFsTreeList15SlideInDurationEv @ 300 NONAME
	_ZNK11CFsTreeList15TextMarqueeTypeEv @ 301 NONAME
	_ZNK11CFsTreeList16SlideInDirectionEv @ 302 NONAME
	_ZNK11CFsTreeList16SlideOutDurationEv @ 303 NONAME
	_ZNK11CFsTreeList16TextMarqueeSpeedEv @ 304 NONAME
	_ZNK11CFsTreeList16TextStyleManagerEv @ 305 NONAME
	_ZNK11CFsTreeList17SlideOutDirectionEv @ 306 NONAME
	_ZNK11CFsTreeList19ScrollbarVisibilityEv @ 307 NONAME
	_ZN11CFsTreeList23DisableKineticScrollingEi @ 308 NONAME
	_ZN13CFsControlBar19MakeSelectorVisibleEii @ 309 NONAME
	_ZN21CFsTreeVisualizerBase20MakeSelectorVisibleLEi @ 310 NONAME
	_ZNK11CFsTreeList20TreeVisualizerEventLEN25MFsTreeVisualizerObserver22TFsTreeVisualizerEventEiRK6TPoint @ 311 NONAME
	_ZNK11CFsTreeList21TextMarqueeStartDelayEv @ 312 NONAME
	_ZNK11CFsTreeList22TextMarqueeRepetitionsEv @ 313 NONAME
	_ZNK11CFsTreeList26TextMarqueeCycleStartDelayEv @ 314 NONAME
	_ZNK11CFsTreeList5ChildEij @ 315 NONAME
	_ZNK11CFsTreeList5CountEv @ 316 NONAME
	_ZNK11CFsTreeList5LevelEi @ 317 NONAME
	_ZNK11CFsTreeList6IsNodeEi @ 318 NONAME
	_ZNK11CFsTreeList6ParentEi @ 319 NONAME
	_ZNK11CFsTreeList7IsEmptyEi @ 320 NONAME
	_ZNK11CFsTreeList8ContainsEi @ 321 NONAME
	_ZNK11CFsTreeList8IsMarkedEi @ 322 NONAME
	_ZNK11CFsTreeList8ItemDataEi @ 323 NONAME
	_ZNK11CFsTreeList8MarkTypeEv @ 324 NONAME
	_ZNK11CFsTreeList9IsFocusedEv @ 325 NONAME
	_ZNK13CFsControlBar16GetFocusedButtonEv @ 326 NONAME
	_ZNK13CFsControlBar5WidthEv @ 327 NONAME
	_ZNK13CFsControlBar6HeightEv @ 328 NONAME
	_ZNK13CFsTextViewer10GetControlEv @ 329 NONAME
	_ZNK13CFsTextViewer17BackgroundOpacityEv @ 330 NONAME
	_ZNK13CFsTextViewer28GetVisibleFocusedHotspotLineERi @ 331 NONAME
	_ZNK19CFsTreeRichItemData4TextEv @ 332 NONAME
	_ZTI10CFsTexture @ 333 NONAME ; #<TI>#
	_ZTI10CMyPicture @ 334 NONAME ; #<TI>#
	_ZTI11CFsRichText @ 335 NONAME ; #<TI>#
	_ZTI11CFsTreeList @ 336 NONAME ; #<TI>#
	_ZTI12CSmileyField @ 337 NONAME ; #<TI>#
	_ZTI12TKeyArrayPtr @ 338 NONAME ; #<TI>#
	_ZTI13CFsActionMenu @ 339 NONAME ; #<TI>#
	_ZTI13CFsTextParser @ 340 NONAME ; #<TI>#
	_ZTI13CFsTextViewer @ 341 NONAME ; #<TI>#
	_ZTI13CNewLineField @ 342 NONAME ; #<TI>#
	_ZTI13CPictureField @ 343 NONAME ; #<TI>#
	_ZTI14TFsMarqueeClet @ 344 NONAME ; #<TI>#
	_ZTI15CFsRichTextText @ 345 NONAME ; #<TI>#
	_ZTI15CFsSmileyParser @ 346 NONAME ; #<TI>#
	_ZTI16CFsTextureLoader @ 347 NONAME ; #<TI>#
	_ZTI17CFsBitmapProvider @ 348 NONAME ; #<TI>#
	_ZTI17CFsRichTextSmiley @ 349 NONAME ; #<TI>#
	_ZTI17CFsTextViewerKeys @ 350 NONAME ; #<TI>#
	_ZTI18CFsRichTextNewLine @ 351 NONAME ; #<TI>#
	_ZTI18CFsRichTextPicture @ 352 NONAME ; #<TI>#
	_ZTI18TFsTextureObserver @ 353 NONAME ; #<TI>#
	_ZTI19CFsSmileyDictionary @ 354 NONAME ; #<TI>#
	_ZTI19CFsTextStyleManager @ 355 NONAME ; #<TI>#
	_ZTI19CFsTextViewerSelect @ 356 NONAME ; #<TI>#
	_ZTI20CFsActionMenuControl @ 357 NONAME ; #<TI>#
	_ZTI20CFsTextViewerControl @ 358 NONAME ; #<TI>#
	_ZTI21CFsAlfScrollbarLayout @ 359 NONAME ; #<TI>#
	_ZTI21CFsTextViewerLayouter @ 360 NONAME ; #<TI>#
	_ZTI21CFsTextViewerSkinData @ 361 NONAME ; #<TI>#
	_ZTI22CFsAlfTextStyleManager @ 362 NONAME ; #<TI>#
	_ZTI22CFsTextViewerWatermark @ 363 NONAME ; #<TI>#
	_ZTI23CFsTextViewerSelectLine @ 364 NONAME ; #<TI>#
	_ZTI23CFsTextViewerVisualizer @ 365 NONAME ; #<TI>#
	_ZTI24CFsTextViewerCoordinator @ 366 NONAME ; #<TI>#
	_ZTI24CFsTextViewerSelectEmbed @ 367 NONAME ; #<TI>#
	_ZTI25CFsTextViewerMarkFacility @ 368 NONAME ; #<TI>#
	_ZTI26CFsControlButtonVisualiser @ 369 NONAME ; #<TI>#
	_ZTI26CFsTextViewerSelectHotspot @ 370 NONAME ; #<TI>#
	_ZTI27CFsTextViewerSelectsManager @ 371 NONAME ; #<TI>#
	_ZTI27CFsTextViewerVisualizerData @ 372 NONAME ; #<TI>#
	_ZTI31CFsTextViewerVisualizerSettings @ 373 NONAME ; #<TI>#
	_ZTV10CFsTexture @ 374 NONAME ; #<VT>#
	_ZTV10CMyPicture @ 375 NONAME ; #<VT>#
	_ZTV11CFsRichText @ 376 NONAME ; #<VT>#
	_ZTV11CFsTreeList @ 377 NONAME ; #<VT>#
	_ZTV12CSmileyField @ 378 NONAME ; #<VT>#
	_ZTV12TKeyArrayPtr @ 379 NONAME ; #<VT>#
	_ZTV13CFsActionMenu @ 380 NONAME ; #<VT>#
	_ZTV13CFsTextParser @ 381 NONAME ; #<VT>#
	_ZTV13CFsTextViewer @ 382 NONAME ; #<VT>#
	_ZTV13CNewLineField @ 383 NONAME ; #<VT>#
	_ZTV13CPictureField @ 384 NONAME ; #<VT>#
	_ZTV14TFsMarqueeClet @ 385 NONAME ; #<VT>#
	_ZTV15CFsRichTextText @ 386 NONAME ; #<VT>#
	_ZTV15CFsSmileyParser @ 387 NONAME ; #<VT>#
	_ZTV16CFsTextureLoader @ 388 NONAME ; #<VT>#
	_ZTV17CFsBitmapProvider @ 389 NONAME ; #<VT>#
	_ZTV17CFsRichTextSmiley @ 390 NONAME ; #<VT>#
	_ZTV17CFsTextViewerKeys @ 391 NONAME ; #<VT>#
	_ZTV18CFsRichTextNewLine @ 392 NONAME ; #<VT>#
	_ZTV18CFsRichTextPicture @ 393 NONAME ; #<VT>#
	_ZTV18TFsTextureObserver @ 394 NONAME ; #<VT>#
	_ZTV19CFsSmileyDictionary @ 395 NONAME ; #<VT>#
	_ZTV19CFsTextStyleManager @ 396 NONAME ; #<VT>#
	_ZTV19CFsTextViewerSelect @ 397 NONAME ; #<VT>#
	_ZTV20CFsActionMenuControl @ 398 NONAME ; #<VT>#
	_ZTV20CFsTextViewerControl @ 399 NONAME ; #<VT>#
	_ZTV21CFsAlfScrollbarLayout @ 400 NONAME ; #<VT>#
	_ZTV21CFsTextViewerLayouter @ 401 NONAME ; #<VT>#
	_ZTV21CFsTextViewerSkinData @ 402 NONAME ; #<VT>#
	_ZTV22CFsAlfTextStyleManager @ 403 NONAME ; #<VT>#
	_ZTV22CFsTextViewerWatermark @ 404 NONAME ; #<VT>#
	_ZTV23CFsTextViewerSelectLine @ 405 NONAME ; #<VT>#
	_ZTV23CFsTextViewerVisualizer @ 406 NONAME ; #<VT>#
	_ZTV24CFsTextViewerCoordinator @ 407 NONAME ; #<VT>#
	_ZTV24CFsTextViewerSelectEmbed @ 408 NONAME ; #<VT>#
	_ZTV25CFsTextViewerMarkFacility @ 409 NONAME ; #<VT>#
	_ZTV26CFsControlButtonVisualiser @ 410 NONAME ; #<VT>#
	_ZTV26CFsTextViewerSelectHotspot @ 411 NONAME ; #<VT>#
	_ZTV27CFsTextViewerSelectsManager @ 412 NONAME ; #<VT>#
	_ZTV27CFsTextViewerVisualizerData @ 413 NONAME ; #<VT>#
	_ZTV31CFsTextViewerVisualizerSettings @ 414 NONAME ; #<VT>#
	_ZThn32_N14CFsTreeControl11OfferEventLERK9TAlfEvent @ 415 NONAME ; #<thunk>#
	_ZThn4_N26CFsControlButtonVisualiser23TextureLoadingCompletedER11CAlfTextureii @ 416 NONAME ; #<thunk>#
	_ZThn4_NK11CFsTreeList20TreeVisualizerEventLEN25MFsTreeVisualizerObserver22TFsTreeVisualizerEventEiRK6TPoint @ 417 NONAME ; #<thunk>#
	_ZN11CFsTreeList15SetMarkingModeLEi @ 418 NONAME

