EXPORTS
	??0CBasePlugin@@IAE@XZ @ 1 NONAME ; CBasePlugin::CBasePlugin(void)
	??0CDelayedOp@@IAE@XZ @ 2 NONAME ; CDelayedOp::CDelayedOp(void)
	??1CBaseMrAttendee@@UAE@XZ @ 3 NONAME ; CBaseMrAttendee::~CBaseMrAttendee(void)
	??1CBaseMrInfoObject@@UAE@XZ @ 4 NONAME ; CBaseMrInfoObject::~CBaseMrInfoObject(void)
	??1CBaseMrInfoProcessor@@UAE@XZ @ 5 NONAME ; CBaseMrInfoProcessor::~CBaseMrInfoProcessor(void)
	??1CBaseMrRecurrenceRule@@UAE@XZ @ 6 NONAME ; CBaseMrRecurrenceRule::~CBaseMrRecurrenceRule(void)
	??1CBasePlugin@@UAE@XZ @ 7 NONAME ; CBasePlugin::~CBasePlugin(void)
	??1CDelayedOp@@UAE@XZ @ 8 NONAME ; CDelayedOp::~CDelayedOp(void)
	?AccountEventNotify@CBasePlugin@@UAEXW4TMsgStoreAccountEvent@@JABVTDesC16@@1I@Z @ 9 NONAME ; void CBasePlugin::AccountEventNotify(enum TMsgStoreAccountEvent, long, class TDesC16 const &, class TDesC16 const &, unsigned int)
	?AddAttachmentsL@CBaseMrInfoObject@@UAEXPAVMMRAttachment@@@Z @ 10 NONAME ; void CBaseMrInfoObject::AddAttachmentsL(class MMRAttachment *)
	?AddAttendeeL@CBaseMrInfoObject@@UAEXPAVMMRAttendee@@@Z @ 11 NONAME ; void CBaseMrInfoObject::AddAttendeeL(class MMRAttendee *)
	?AddObserverL@CBasePlugin@@UAEXAAVMFSMailEventObserver@@@Z @ 12 NONAME ; void CBasePlugin::AddObserverL(class MFSMailEventObserver &)
	?AddRecurrenceExceptionL@CBaseMrInfoObject@@UAEXPAVMMRInfoObject@@@Z @ 13 NONAME ; void CBaseMrInfoObject::AddRecurrenceExceptionL(class MMRInfoObject *)
	?Address@CBaseMrAttendee@@UBEABVTDesC16@@XZ @ 14 NONAME ; class TDesC16 const & CBaseMrAttendee::Address(void) const
	?AlarmInUtcL@CBaseMrInfoObject@@UBE?AVTTime@@XZ @ 15 NONAME ; class TTime CBaseMrInfoObject::AlarmInUtcL(void) const
	?AttachmentsL@CBaseMrInfoObject@@UBEABV?$RPointerArray@VMMRAttachment@@@@XZ @ 16 NONAME ; class RPointerArray<class MMRAttachment> const & CBaseMrInfoObject::AttachmentsL(void) const
	?AttendeeRole@CBaseMrAttendee@@UBE?AW4TAttendeeRole@MMRAttendee@@XZ @ 17 NONAME ; enum MMRAttendee::TAttendeeRole CBaseMrAttendee::AttendeeRole(void) const
	?AttendeeStatus@CBaseMrAttendee@@UBE?AW4TAttendeeStatus@MMRAttendee@@XZ @ 18 NONAME ; enum MMRAttendee::TAttendeeStatus CBaseMrAttendee::AttendeeStatus(void) const
	?AttendeesL@CBaseMrInfoObject@@UAEAAV?$RPointerArray@VMMRAttendee@@@@XZ @ 19 NONAME ; class RPointerArray<class MMRAttendee> & CBaseMrInfoObject::AttendeesL(void)
	?AuthenticateL@CBasePlugin@@UAEXAAVMFSMailRequestObserver@@H@Z @ 20 NONAME ; void CBasePlugin::AuthenticateL(class MFSMailRequestObserver &, int)
	?CancelL@CBasePlugin@@UAEXH@Z @ 21 NONAME ; void CBasePlugin::CancelL(int)
	?CancelSearch@CBasePlugin@@UAEXABVTFSMailMsgId@@@Z @ 22 NONAME ; void CBasePlugin::CancelSearch(class TFSMailMsgId const &)
	?CancelSyncL@CBasePlugin@@UAEHABVTFSMailMsgId@@@Z @ 23 NONAME ; int CBasePlugin::CancelSyncL(class TFSMailMsgId const &)
	?ChildPartsL@CBasePlugin@@UAEXABVTFSMailMsgId@@000AAV?$RPointerArray@VCFSMailMessagePart@@@@@Z @ 24 NONAME ; void CBasePlugin::ChildPartsL(class TFSMailMsgId const &, class TFSMailMsgId const &, class TFSMailMsgId const &, class TFSMailMsgId const &, class RPointerArray<class CFSMailMessagePart> &)
	?ClearSearchResultCache@CBasePlugin@@UAEXABVTFSMailMsgId@@@Z @ 25 NONAME ; void CBasePlugin::ClearSearchResultCache(class TFSMailMsgId const &)
	?CommonName@CBaseMrAttendee@@UBEABVTDesC16@@XZ @ 26 NONAME ; class TDesC16 const & CBaseMrAttendee::CommonName(void) const
	?ConstructL@CBasePlugin@@IAEXXZ @ 27 NONAME ; void CBasePlugin::ConstructL(void)
	?CopyMessageAsChildPartL@CBasePlugin@@UAEPAVCFSMailMessagePart@@ABVTFSMailMsgId@@0000ABVCFSMailMessage@@@Z @ 28 NONAME ; class CFSMailMessagePart * CBasePlugin::CopyMessageAsChildPartL(class TFSMailMsgId const &, class TFSMailMsgId const &, class TFSMailMsgId const &, class TFSMailMsgId const &, class TFSMailMsgId const &, class CFSMailMessage const &)
	?CopyMessagePartFileL@CBasePlugin@@UAEXABVTFSMailMsgId@@000ABVTDesC16@@@Z @ 29 NONAME ; void CBasePlugin::CopyMessagePartFileL(class TFSMailMsgId const &, class TFSMailMsgId const &, class TFSMailMsgId const &, class TFSMailMsgId const &, class TDesC16 const &)
	?CopyMessagesL@CBasePlugin@@UAEXABVTFSMailMsgId@@ABV?$RArray@VTFSMailMsgId@@@@AAV3@00@Z @ 30 NONAME ; void CBasePlugin::CopyMessagesL(class TFSMailMsgId const &, class RArray<class TFSMailMsgId> const &, class RArray<class TFSMailMsgId> &, class TFSMailMsgId const &, class TFSMailMsgId const &)
	?CreateFolderL@CBasePlugin@@UAEPAVCFSMailFolder@@ABVTFSMailMsgId@@0ABVTDesC16@@H@Z @ 31 NONAME ; class CFSMailFolder * CBasePlugin::CreateFolderL(class TFSMailMsgId const &, class TFSMailMsgId const &, class TDesC16 const &, int)
	?CreateForwardMessageL@CBasePlugin@@UAEPAVCFSMailMessage@@ABVTFSMailMsgId@@0ABVTDesC16@@@Z @ 32 NONAME ; class CFSMailMessage * CBasePlugin::CreateForwardMessageL(class TFSMailMsgId const &, class TFSMailMsgId const &, class TDesC16 const &)
	?CreateForwardReplyMessageL@CBasePlugin@@IAEPAVCFSMailMessage@@ABVTFSMailMsgId@@0HABVTDesC16@@HH@Z @ 33 NONAME ; class CFSMailMessage * CBasePlugin::CreateForwardReplyMessageL(class TFSMailMsgId const &, class TFSMailMsgId const &, int, class TDesC16 const &, int, int)
	?CreateMessageToSendL@CBasePlugin@@UAEPAVCFSMailMessage@@ABVTFSMailMsgId@@@Z @ 34 NONAME ; class CFSMailMessage * CBasePlugin::CreateMessageToSendL(class TFSMailMsgId const &)
	?CreateMrReplyMessageL@CBasePlugin@@MAEPAVCFSMailMessage@@ABVTFSMailMsgId@@AAVMMRInfoObject@@0@Z @ 35 NONAME ; class CFSMailMessage * CBasePlugin::CreateMrReplyMessageL(class TFSMailMsgId const &, class MMRInfoObject &, class TFSMailMsgId const &)
	?CreateReplyMessageL@CBasePlugin@@UAEPAVCFSMailMessage@@ABVTFSMailMsgId@@0HABVTDesC16@@@Z @ 36 NONAME ; class CFSMailMessage * CBasePlugin::CreateReplyMessageL(class TFSMailMsgId const &, class TFSMailMsgId const &, int, class TDesC16 const &)
	?CreationTimeInUtcL@CBaseMrInfoObject@@UBE?AVTTime@@XZ @ 37 NONAME ; class TTime CBaseMrInfoObject::CreationTimeInUtcL(void) const
	?CurrentSyncState@CBasePlugin@@UAE?AW4TSSMailSyncState@@ABVTFSMailMsgId@@@Z @ 38 NONAME ; enum TSSMailSyncState CBasePlugin::CurrentSyncState(class TFSMailMsgId const &)
	?DeleteFetchRequest@CBasePlugin@@IAEXAAUTOngoingFetchInfo@1@@Z @ 39 NONAME ; void CBasePlugin::DeleteFetchRequest(struct CBasePlugin::TOngoingFetchInfo &)
	?DeleteFetchRequestForPart@CBasePlugin@@IAEHAAUTOngoingFetchInfo@1@@Z @ 40 NONAME ; int CBasePlugin::DeleteFetchRequestForPart(struct CBasePlugin::TOngoingFetchInfo &)
	?DeleteFolderByUidL@CBasePlugin@@UAEXABVTFSMailMsgId@@0@Z @ 41 NONAME ; void CBasePlugin::DeleteFolderByUidL(class TFSMailMsgId const &, class TFSMailMsgId const &)
	?DeleteMailBoxByUidL@CBasePlugin@@UAEXABVTFSMailMsgId@@AAVMFSMailRequestObserver@@H@Z @ 42 NONAME ; void CBasePlugin::DeleteMailBoxByUidL(class TFSMailMsgId const &, class MFSMailRequestObserver &, int)
	?DeleteMessagesByUidL@CBasePlugin@@UAEXABVTFSMailMsgId@@0ABV?$RArray@VTFSMailMsgId@@@@@Z @ 43 NONAME ; void CBasePlugin::DeleteMessagesByUidL(class TFSMailMsgId const &, class TFSMailMsgId const &, class RArray<class TFSMailMsgId> const &)
	?DescriptionL@CBaseMrInfoObject@@UBEABVTDesC16@@XZ @ 44 NONAME ; class TDesC16 const & CBaseMrInfoObject::DescriptionL(void) const
	?DoCancel@CDelayedOp@@EAEXXZ @ 45 NONAME ; void CDelayedOp::DoCancel(void)
	?EndTimeInUtcL@CBaseMrInfoObject@@UBE?AVTTime@@XZ @ 46 NONAME ; class TTime CBaseMrInfoObject::EndTimeInUtcL(void) const
	?ExtensionL@CBaseMrInfoObject@@UAEPAXVTUid@@@Z @ 47 NONAME ; void * CBaseMrInfoObject::ExtensionL(class TUid)
	?FetchEmailAddressL@CBasePlugin@@IAEPAVCFSMailAddress@@AAVCMsgStorePropertyContainer@@I@Z @ 48 NONAME ; class CFSMailAddress * CBasePlugin::FetchEmailAddressL(class CMsgStorePropertyContainer &, unsigned int)
	?FetchMessagePartsL@CBasePlugin@@UAEXABVTFSMailMsgId@@00ABV?$RArray@VTFSMailMsgId@@@@AAVMFSMailRequestObserver@@HI@Z @ 49 NONAME ; void CBasePlugin::FetchMessagePartsL(class TFSMailMsgId const &, class TFSMailMsgId const &, class TFSMailMsgId const &, class RArray<class TFSMailMsgId> const &, class MFSMailRequestObserver &, int, unsigned int)
	?FetchMessagesL@CBasePlugin@@UAEXABVTFSMailMsgId@@0ABV?$RArray@VTFSMailMsgId@@@@W4TFSMailDetails@@AAVMFSMailRequestObserver@@H@Z @ 50 NONAME ; void CBasePlugin::FetchMessagesL(class TFSMailMsgId const &, class TFSMailMsgId const &, class RArray<class TFSMailMsgId> const &, enum TFSMailDetails, class MFSMailRequestObserver &, int)
	?FindFetchRequestL@CBasePlugin@@IAEHIIIIAAUTOngoingFetchInfo@1@@Z @ 51 NONAME ; int CBasePlugin::FindFetchRequestL(unsigned int, unsigned int, unsigned int, unsigned int, struct CBasePlugin::TOngoingFetchInfo &)
	?GetAccountForMsgBoxL@CBasePlugin@@IAEPAVCMsgStoreAccount@@ABVTFSMailMsgId@@@Z @ 52 NONAME ; class CMsgStoreAccount * CBasePlugin::GetAccountForMsgBoxL(class TFSMailMsgId const &)
	?GetBodyPartL@CBasePlugin@@IAEPAVCMsgStoreMessagePart@@AAVCMsgStoreMessage@@ABVTDesC16@@@Z @ 53 NONAME ; class CMsgStoreMessagePart * CBasePlugin::GetBodyPartL(class CMsgStoreMessage &, class TDesC16 const &)
	?GetBrandingIdL@CBasePlugin@@UAEAAVTDesC16@@ABVTFSMailMsgId@@@Z @ 54 NONAME ; class TDesC16 & CBasePlugin::GetBrandingIdL(class TFSMailMsgId const &)
	?GetCachedBodyChildrenL@CBasePlugin@@IAEAAV?$RPointerArray@VCMsgStoreMessagePart@@@@XZ @ 55 NONAME ; class RPointerArray<class CMsgStoreMessagePart> & CBasePlugin::GetCachedBodyChildrenL(void)
	?GetCachedBodyL@CBasePlugin@@IAEPAVCMsgStoreMessagePart@@I@Z @ 56 NONAME ; class CMsgStoreMessagePart * CBasePlugin::GetCachedBodyL(unsigned int)
	?GetCachedMsgChildrenL@CBasePlugin@@IAEAAV?$RPointerArray@VCMsgStoreMessagePart@@@@XZ @ 57 NONAME ; class RPointerArray<class CMsgStoreMessagePart> & CBasePlugin::GetCachedMsgChildrenL(void)
	?GetCachedMsgL@CBasePlugin@@IAEPAVCMsgStoreMessage@@II@Z @ 58 NONAME ; class CMsgStoreMessage * CBasePlugin::GetCachedMsgL(unsigned int, unsigned int)
	?GetContentToBufferL@CBasePlugin@@UAEXABVTFSMailMsgId@@000AAVTDes16@@I@Z @ 59 NONAME ; void CBasePlugin::GetContentToBufferL(class TFSMailMsgId const &, class TFSMailMsgId const &, class TFSMailMsgId const &, class TFSMailMsgId const &, class TDes16 &, unsigned int)
	?GetDelayedOpsManager@CBasePlugin@@QAEAAVMDelayedOpsManager@@XZ @ 60 NONAME ; class MDelayedOpsManager & CBasePlugin::GetDelayedOpsManager(void)
	?GetFolderByUidL@CBasePlugin@@UAEPAVCFSMailFolder@@ABVTFSMailMsgId@@0@Z @ 61 NONAME ; class CFSMailFolder * CBasePlugin::GetFolderByUidL(class TFSMailMsgId const &, class TFSMailMsgId const &)
	?GetLastSyncStatusL@CBasePlugin@@UAE?BVTFSProgress@@ABVTFSMailMsgId@@@Z @ 62 NONAME ; class TFSProgress const CBasePlugin::GetLastSyncStatusL(class TFSMailMsgId const &)
	?GetMailBoxByUidL@CBasePlugin@@UAEPAVCFSMailBox@@ABVTFSMailMsgId@@@Z @ 63 NONAME ; class CFSMailBox * CBasePlugin::GetMailBoxByUidL(class TFSMailMsgId const &)
	?GetMailBoxStatus@CBasePlugin@@UAE?AW4TFSMailBoxStatus@@ABVTFSMailMsgId@@@Z @ 64 NONAME ; enum TFSMailBoxStatus CBasePlugin::GetMailBoxStatus(class TFSMailMsgId const &)
	?GetMailboxInfoL@CBasePlugin@@IAEAAVCMailboxInfo@@I@Z @ 65 NONAME ; class CMailboxInfo & CBasePlugin::GetMailboxInfoL(unsigned int)
	?GetMessageByUidL@CBasePlugin@@UAEPAVCFSMailMessage@@ABVTFSMailMsgId@@00W4TFSMailDetails@@@Z @ 66 NONAME ; class CFSMailMessage * CBasePlugin::GetMessageByUidL(class TFSMailMsgId const &, class TFSMailMsgId const &, class TFSMailMsgId const &, enum TFSMailDetails)
	?GetMessagePartFileL@CBasePlugin@@UAEHABVTFSMailMsgId@@000AAVRFile@@@Z @ 67 NONAME ; int CBasePlugin::GetMessagePartFileL(class TFSMailMsgId const &, class TFSMailMsgId const &, class TFSMailMsgId const &, class TFSMailMsgId const &, class RFile &)
	?GetMessagesL@CBasePlugin@@UAEXABVTFSMailMsgId@@0ABV?$RArray@VTFSMailMsgId@@@@AAV?$RPointerArray@VCFSMailMessage@@@@W4TFSMailDetails@@@Z @ 68 NONAME ; void CBasePlugin::GetMessagesL(class TFSMailMsgId const &, class TFSMailMsgId const &, class RArray<class TFSMailMsgId> const &, class RPointerArray<class CFSMailMessage> &, enum TFSMailDetails)
	?GetMrusL@CBasePlugin@@UAEPAVMDesC16Array@@ABVTFSMailMsgId@@@Z @ 69 NONAME ; class MDesC16Array * CBasePlugin::GetMrusL(class TFSMailMsgId const &)
	?GetPlugin@CDelayedOp@@IAEAAVCBasePlugin@@XZ @ 70 NONAME ; class CBasePlugin & CDelayedOp::GetPlugin(void)
	?GetPluginId@CBasePlugin@@MAEIXZ @ 71 NONAME ; unsigned int CBasePlugin::GetPluginId(void)
	?GetStandardFolderIdL@CBasePlugin@@UAE?AVTFSMailMsgId@@ABV2@W4TFSFolderType@@@Z @ 72 NONAME ; class TFSMailMsgId CBasePlugin::GetStandardFolderIdL(class TFSMailMsgId const &, enum TFSFolderType)
	?GoOfflineL@CBasePlugin@@UAEXABVTFSMailMsgId@@@Z @ 73 NONAME ; void CBasePlugin::GoOfflineL(class TFSMailMsgId const &)
	?GoOnlineL@CBasePlugin@@UAEXABVTFSMailMsgId@@@Z @ 74 NONAME ; void CBasePlugin::GoOnlineL(class TFSMailMsgId const &)
	?HandleMailboxDeleteL@CBasePlugin@@MAEXABVTFSMailMsgId@@@Z @ 75 NONAME ; void CBasePlugin::HandleMailboxDeleteL(class TFSMailMsgId const &)
	?HandleRemovePartContentL@CBasePlugin@@MAEXAAVCMsgStoreMessage@@AAVCMsgStoreMessagePart@@@Z @ 76 NONAME ; void CBasePlugin::HandleRemovePartContentL(class CMsgStoreMessage &, class CMsgStoreMessagePart &)
	?InvalidateCacheIfNecessary@CBasePlugin@@IAEXIII@Z @ 77 NONAME ; void CBasePlugin::InvalidateCacheIfNecessary(unsigned int, unsigned int, unsigned int)
	?ListFoldersL@CBasePlugin@@UAEXABVTFSMailMsgId@@0AAV?$RPointerArray@VCFSMailFolder@@@@@Z @ 78 NONAME ; void CBasePlugin::ListFoldersL(class TFSMailMsgId const &, class TFSMailMsgId const &, class RPointerArray<class CFSMailFolder> &)
	?ListFoldersL@CBasePlugin@@UAEXABVTFSMailMsgId@@AAV?$RPointerArray@VCFSMailFolder@@@@@Z @ 79 NONAME ; void CBasePlugin::ListFoldersL(class TFSMailMsgId const &, class RPointerArray<class CFSMailFolder> &)
	?ListMailBoxesL@CBasePlugin@@UAEXAAV?$RArray@VTFSMailMsgId@@@@@Z @ 80 NONAME ; void CBasePlugin::ListMailBoxesL(class RArray<class TFSMailMsgId> &)
	?ListMessagesL@CBasePlugin@@UAEPAVMFSMailIterator@@ABVTFSMailMsgId@@0W4TFSMailDetails@@ABV?$RArray@VTFSMailSortCriteria@@@@@Z @ 81 NONAME ; class MFSMailIterator * CBasePlugin::ListMessagesL(class TFSMailMsgId const &, class TFSMailMsgId const &, enum TFSMailDetails, class RArray<class TFSMailSortCriteria> const &)
	?LocationL@CBaseMrInfoObject@@UBEABVTDesC16@@XZ @ 82 NONAME ; class TDesC16 const & CBaseMrInfoObject::LocationL(void) const
	?MRMethodL@CBaseMrInfoObject@@UBE?AW4TMRMethod@MMRInfoObject@@XZ @ 83 NONAME ; enum MMRInfoObject::TMRMethod CBaseMrInfoObject::MRMethodL(void) const
	?MROrganizerL@CBaseMrInfoObject@@UAEAAVMMROrganizer@@XZ @ 84 NONAME ; class MMROrganizer & CBaseMrInfoObject::MROrganizerL(void)
	?MRRecurrenceId@CBaseMrInfoObject@@UBE?AVTTime@@XZ @ 85 NONAME ; class TTime CBaseMrInfoObject::MRRecurrenceId(void) const
	?MRResponse@CBaseMrInfoObject@@UBE?AW4TResponse@MMRInfoObject@@XZ @ 86 NONAME ; enum MMRInfoObject::TResponse CBaseMrInfoObject::MRResponse(void) const
	?MRSequenceNumberL@CBaseMrInfoObject@@UBEHXZ @ 87 NONAME ; int CBaseMrInfoObject::MRSequenceNumberL(void) const
	?MailboxHasCapabilityL@CBasePlugin@@UAEHW4TFSMailBoxCapabilities@@VTFSMailMsgId@@@Z @ 88 NONAME ; int CBasePlugin::MailboxHasCapabilityL(enum TFSMailBoxCapabilities, class TFSMailMsgId)
	?MessagePartL@CBasePlugin@@UAEPAVCFSMailMessagePart@@ABVTFSMailMsgId@@000@Z @ 89 NONAME ; class CFSMailMessagePart * CBasePlugin::MessagePartL(class TFSMailMsgId const &, class TFSMailMsgId const &, class TFSMailMsgId const &, class TFSMailMsgId const &)
	?ModificationNotify@CBasePlugin@@UAEXIW4TMsgStoreOperation@@W4TMsgStoreContainerType@@KIII@Z @ 90 NONAME ; void CBasePlugin::ModificationNotify(unsigned int, enum TMsgStoreOperation, enum TMsgStoreContainerType, unsigned long, unsigned int, unsigned int, unsigned int)
	?MoveMessagesL@CBasePlugin@@UAEXABVTFSMailMsgId@@ABV?$RArray@VTFSMailMsgId@@@@00@Z @ 91 NONAME ; void CBasePlugin::MoveMessagesL(class TFSMailMsgId const &, class RArray<class TFSMailMsgId> const &, class TFSMailMsgId const &, class TFSMailMsgId const &)
	?NewChildPartFromFileL@CBasePlugin@@UAEPAVCFSMailMessagePart@@ABVTFSMailMsgId@@000ABVTDesC16@@1@Z @ 92 NONAME ; class CFSMailMessagePart * CBasePlugin::NewChildPartFromFileL(class TFSMailMsgId const &, class TFSMailMsgId const &, class TFSMailMsgId const &, class TFSMailMsgId const &, class TDesC16 const &, class TDesC16 const &)
	?NewChildPartFromFileL@CBasePlugin@@UAEPAVCFSMailMessagePart@@ABVTFSMailMsgId@@000ABVTDesC16@@AAVRFile@@@Z @ 93 NONAME ; class CFSMailMessagePart * CBasePlugin::NewChildPartFromFileL(class TFSMailMsgId const &, class TFSMailMsgId const &, class TFSMailMsgId const &, class TFSMailMsgId const &, class TDesC16 const &, class RFile &)
	?NewChildPartL@CBasePlugin@@UAEPAVCFSMailMessagePart@@ABVTFSMailMsgId@@0000ABVTDesC16@@@Z @ 94 NONAME ; class CFSMailMessagePart * CBasePlugin::NewChildPartL(class TFSMailMsgId const &, class TFSMailMsgId const &, class TFSMailMsgId const &, class TFSMailMsgId const &, class TFSMailMsgId const &, class TDesC16 const &)
	?NewL@CBaseMrAttendee@@SAPAV1@ABVMMRAttendee@@@Z @ 95 NONAME ; class CBaseMrAttendee * CBaseMrAttendee::NewL(class MMRAttendee const &)
	?NewL@CBaseMrAttendee@@SAPAV1@ABVMMROrganizer@@@Z @ 96 NONAME ; class CBaseMrAttendee * CBaseMrAttendee::NewL(class MMROrganizer const &)
	?NewL@CBaseMrAttendee@@SAPAV1@XZ @ 97 NONAME ; class CBaseMrAttendee * CBaseMrAttendee::NewL(void)
	?NewL@CBaseMrInfoObject@@SAPAV1@AAVMMRInfoObject@@@Z @ 98 NONAME ; class CBaseMrInfoObject * CBaseMrInfoObject::NewL(class MMRInfoObject &)
	?NewL@CBaseMrInfoObject@@SAPAV1@XZ @ 99 NONAME ; class CBaseMrInfoObject * CBaseMrInfoObject::NewL(void)
	?NewL@CBaseMrInfoProcessor@@SAPAV1@AAVCBasePlugin@@@Z @ 100 NONAME ; class CBaseMrInfoProcessor * CBaseMrInfoProcessor::NewL(class CBasePlugin &)
	?NewL@CBaseMrRecurrenceRule@@SAPAV1@ABVMRRecurrenceRule@@@Z @ 101 NONAME ; class CBaseMrRecurrenceRule * CBaseMrRecurrenceRule::NewL(class MRRecurrenceRule const &)
	?NewL@CBaseMrRecurrenceRule@@SAPAV1@XZ @ 102 NONAME ; class CBaseMrRecurrenceRule * CBaseMrRecurrenceRule::NewL(void)
	?NotifyMailboxEventL@CBasePlugin@@MAEXW4TFSMailEvent@@VTFSMailMsgId@@PAX22@Z @ 103 NONAME ; void CBasePlugin::NotifyMailboxEventL(enum TFSMailEvent, class TFSMailMsgId, void *, void *, void *)
	?PriorityL@CBaseMrInfoObject@@UBEIXZ @ 104 NONAME ; unsigned int CBaseMrInfoObject::PriorityL(void) const
	?RecurrenceExceptionsL@CBaseMrInfoObject@@UBEABV?$RPointerArray@VMMRInfoObject@@@@XZ @ 105 NONAME ; class RPointerArray<class MMRInfoObject> const & CBaseMrInfoObject::RecurrenceExceptionsL(void) const
	?RecurrenceRuleL@CBaseMrInfoObject@@UBEABVMRRecurrenceRule@@XZ @ 106 NONAME ; class MRRecurrenceRule const & CBaseMrInfoObject::RecurrenceRuleL(void) const
	?RecurrenceStartTime@CBaseMrRecurrenceRule@@UBE?AVTTime@@XZ @ 107 NONAME ; class TTime CBaseMrRecurrenceRule::RecurrenceStartTime(void) const
	?RecurrentCount@CBaseMrRecurrenceRule@@UBEIXZ @ 108 NONAME ; unsigned int CBaseMrRecurrenceRule::RecurrentCount(void) const
	?RecurrentDaysofMonth@CBaseMrRecurrenceRule@@UBEABV?$RArray@UTRecurrentDaysofMonth@MRRecurrenceRule@@@@XZ @ 109 NONAME ; class RArray<struct MRRecurrenceRule::TRecurrentDaysofMonth> const & CBaseMrRecurrenceRule::RecurrentDaysofMonth(void) const
	?RecurrentInterval@CBaseMrRecurrenceRule@@UBEHXZ @ 110 NONAME ; int CBaseMrRecurrenceRule::RecurrentInterval(void) const
	?RecurrentMonthDays@CBaseMrRecurrenceRule@@UBEABV?$RArray@H@@XZ @ 111 NONAME ; class RArray<int> const & CBaseMrRecurrenceRule::RecurrentMonthDays(void) const
	?RecurrentMonths@CBaseMrRecurrenceRule@@UBEABV?$RArray@W4TMRRecurrenceMonth@MRRecurrenceRule@@@@XZ @ 112 NONAME ; class RArray<enum MRRecurrenceRule::TMRRecurrenceMonth> const & CBaseMrRecurrenceRule::RecurrentMonths(void) const
	?RecurrentUntil@CBaseMrRecurrenceRule@@UBE?AVTTime@@XZ @ 113 NONAME ; class TTime CBaseMrRecurrenceRule::RecurrentUntil(void) const
	?RecurrentWeekDays@CBaseMrRecurrenceRule@@UBEABV?$RArray@W4TMRRecurrentDay@MRRecurrenceRule@@@@XZ @ 114 NONAME ; class RArray<enum MRRecurrenceRule::TMRRecurrentDay> const & CBaseMrRecurrenceRule::RecurrentWeekDays(void) const
	?RefreshMailboxCacheL@CBasePlugin@@IAEAAVCMailboxInfo@@I@Z @ 115 NONAME ; class CMailboxInfo & CBasePlugin::RefreshMailboxCacheL(unsigned int)
	?RefreshNowL@CBasePlugin@@UAEXABVTFSMailMsgId@@AAVMFSMailRequestObserver@@H@Z @ 116 NONAME ; void CBasePlugin::RefreshNowL(class TFSMailMsgId const &, class MFSMailRequestObserver &, int)
	?RemoveAllPropertiesL@CBasePlugin@@KAXAAVCMsgStorePropertyContainer@@ABVTDesC8@@@Z @ 117 NONAME ; void CBasePlugin::RemoveAllPropertiesL(class CMsgStorePropertyContainer &, class TDesC8 const &)
	?RemoveChildPartL@CBasePlugin@@UAEXABVTFSMailMsgId@@0000@Z @ 118 NONAME ; void CBasePlugin::RemoveChildPartL(class TFSMailMsgId const &, class TFSMailMsgId const &, class TFSMailMsgId const &, class TFSMailMsgId const &, class TFSMailMsgId const &)
	?RemoveObserver@CBasePlugin@@UAEXAAVMFSMailEventObserver@@@Z @ 119 NONAME ; void CBasePlugin::RemoveObserver(class MFSMailEventObserver &)
	?RemovePartContentL@CBasePlugin@@UAEXABVTFSMailMsgId@@00ABV?$RArray@VTFSMailMsgId@@@@@Z @ 120 NONAME ; void CBasePlugin::RemovePartContentL(class TFSMailMsgId const &, class TFSMailMsgId const &, class TFSMailMsgId const &, class RArray<class TFSMailMsgId> const &)
	?ReplyToMeetingRequestL@CBaseMrInfoProcessor@@UAEXABVTFSMailMsgId@@0AAVMMRInfoObject@@AAW4TMRInfoResponseMode@MMRInfoProcessor@@ABVTDesC16@@@Z @ 121 NONAME ; void CBaseMrInfoProcessor::ReplyToMeetingRequestL(class TFSMailMsgId const &, class TFSMailMsgId const &, class MMRInfoObject &, enum MMRInfoProcessor::TMRInfoResponseMode &, class TDesC16 const &)
	?ReportRequestStatusL@CBasePlugin@@MAEXIIIIH@Z @ 122 NONAME ; void CBasePlugin::ReportRequestStatusL(unsigned int, unsigned int, unsigned int, unsigned int, int)
	?ResetBodyCache@CBasePlugin@@IAEXXZ @ 123 NONAME ; void CBasePlugin::ResetBodyCache(void)
	?ResetCache@CBasePlugin@@IAEXXZ @ 124 NONAME ; void CBasePlugin::ResetCache(void)
	?ResponseRequested@CBaseMrAttendee@@UBEHXZ @ 125 NONAME ; int CBaseMrAttendee::ResponseRequested(void) const
	?RunL@CDelayedOp@@EAEXXZ @ 126 NONAME ; void CDelayedOp::RunL(void)
	?SearchL@CBasePlugin@@UAEXABVTFSMailMsgId@@ABV?$RArray@VTFSMailMsgId@@@@ABV?$RPointerArray@VTDesC16@@@@ABVTFSMailSortCriteria@@AAVMFSMailBoxSearchObserver@@@Z @ 127 NONAME ; void CBasePlugin::SearchL(class TFSMailMsgId const &, class RArray<class TFSMailMsgId> const &, class RPointerArray<class TDesC16> const &, class TFSMailSortCriteria const &, class MFSMailBoxSearchObserver &)
	?SendMessageL@CBasePlugin@@QAEXAAVCMsgStoreMailBox@@AAVCMsgStoreMessage@@ABVTTime@@@Z @ 128 NONAME ; void CBasePlugin::SendMessageL(class CMsgStoreMailBox &, class CMsgStoreMessage &, class TTime const &)
	?SendMessageL@CBasePlugin@@UAEXAAVCFSMailMessage@@@Z @ 129 NONAME ; void CBasePlugin::SendMessageL(class CFSMailMessage &)
	?SetAddressL@CBaseMrAttendee@@UAEXABVTDesC16@@@Z @ 130 NONAME ; void CBaseMrAttendee::SetAddressL(class TDesC16 const &)
	?SetAlarmInUtcL@CBaseMrInfoObject@@UAEXVTTime@@@Z @ 131 NONAME ; void CBaseMrInfoObject::SetAlarmInUtcL(class TTime)
	?SetAttendeeRoleL@CBaseMrAttendee@@UAEXW4TAttendeeRole@MMRAttendee@@@Z @ 132 NONAME ; void CBaseMrAttendee::SetAttendeeRoleL(enum MMRAttendee::TAttendeeRole)
	?SetAttendeeStatusL@CBaseMrAttendee@@UAEXAAW4TAttendeeStatus@MMRAttendee@@@Z @ 133 NONAME ; void CBaseMrAttendee::SetAttendeeStatusL(enum MMRAttendee::TAttendeeStatus &)
	?SetCommonNameL@CBaseMrAttendee@@UAEXABVTDesC16@@@Z @ 134 NONAME ; void CBaseMrAttendee::SetCommonNameL(class TDesC16 const &)
	?SetContentL@CBasePlugin@@UAEXABVTDesC16@@ABVTFSMailMsgId@@111@Z @ 135 NONAME ; void CBasePlugin::SetContentL(class TDesC16 const &, class TFSMailMsgId const &, class TFSMailMsgId const &, class TFSMailMsgId const &, class TFSMailMsgId const &)
	?SetContext@CDelayedOp@@QAEXAAVCBasePlugin@@AAVMDelayedOpsManager@@@Z @ 136 NONAME ; void CDelayedOp::SetContext(class CBasePlugin &, class MDelayedOpsManager &)
	?SetCreationTimeInUtcL@CBaseMrInfoObject@@UAEXVTTime@@@Z @ 137 NONAME ; void CBaseMrInfoObject::SetCreationTimeInUtcL(class TTime)
	?SetCredentialsL@CBasePlugin@@UAEXABVTFSMailMsgId@@ABVTDesC16@@1@Z @ 138 NONAME ; void CBasePlugin::SetCredentialsL(class TFSMailMsgId const &, class TDesC16 const &, class TDesC16 const &)
	?SetDescriptionL@CBaseMrInfoObject@@UAEXABVTDesC16@@@Z @ 139 NONAME ; void CBaseMrInfoObject::SetDescriptionL(class TDesC16 const &)
	?SetEndTimeInUtcL@CBaseMrInfoObject@@UAEXVTTime@@@Z @ 140 NONAME ; void CBaseMrInfoObject::SetEndTimeInUtcL(class TTime)
	?SetLocationL@CBaseMrInfoObject@@UAEXABVTDesC16@@@Z @ 141 NONAME ; void CBaseMrInfoObject::SetLocationL(class TDesC16 const &)
	?SetMRRecurrenceIdL@CBaseMrInfoObject@@UAEXVTTime@@@Z @ 142 NONAME ; void CBaseMrInfoObject::SetMRRecurrenceIdL(class TTime)
	?SetMRResponseL@CBaseMrInfoObject@@UAEXW4TResponse@MMRInfoObject@@@Z @ 143 NONAME ; void CBaseMrInfoObject::SetMRResponseL(enum MMRInfoObject::TResponse)
	?SetMRSequenceNumber@CBaseMrInfoObject@@QAEXH@Z @ 144 NONAME ; void CBaseMrInfoObject::SetMRSequenceNumber(int)
	?SetMailboxName@CBasePlugin@@UAEXABVTFSMailMsgId@@ABVTDesC16@@@Z @ 145 NONAME ; void CBasePlugin::SetMailboxName(class TFSMailMsgId const &, class TDesC16 const &)
	?SetMethod@CBaseMrInfoObject@@QAEXW4TMRMethod@MMRInfoObject@@@Z @ 146 NONAME ; void CBaseMrInfoObject::SetMethod(enum MMRInfoObject::TMRMethod)
	?SetMrusL@CBasePlugin@@UAEXABVTFSMailMsgId@@PAVMDesC16Array@@@Z @ 147 NONAME ; void CBasePlugin::SetMrusL(class TFSMailMsgId const &, class MDesC16Array *)
	?SetPartContentFromFileL@CBasePlugin@@UAEXABVTFSMailMsgId@@000ABVTDesC16@@@Z @ 148 NONAME ; void CBasePlugin::SetPartContentFromFileL(class TFSMailMsgId const &, class TFSMailMsgId const &, class TFSMailMsgId const &, class TFSMailMsgId const &, class TDesC16 const &)
	?SetPriorityL@CBaseMrInfoObject@@UAEXI@Z @ 149 NONAME ; void CBaseMrInfoObject::SetPriorityL(unsigned int)
	?SetRecurrenceRuleL@CBaseMrInfoObject@@UAEXABVMRRecurrenceRule@@@Z @ 150 NONAME ; void CBaseMrInfoObject::SetRecurrenceRuleL(class MRRecurrenceRule const &)
	?SetRecurrenceStartTimeL@CBaseMrRecurrenceRule@@UAEXVTTime@@@Z @ 151 NONAME ; void CBaseMrRecurrenceRule::SetRecurrenceStartTimeL(class TTime)
	?SetRecurrenceTypeL@CBaseMrRecurrenceRule@@UAEXW4TMRRecurrenceType@MRRecurrenceRule@@@Z @ 152 NONAME ; void CBaseMrRecurrenceRule::SetRecurrenceTypeL(enum MRRecurrenceRule::TMRRecurrenceType)
	?SetRecurrenceUntilL@CBaseMrRecurrenceRule@@UAEXVTTime@@@Z @ 153 NONAME ; void CBaseMrRecurrenceRule::SetRecurrenceUntilL(class TTime)
	?SetRecurrentCountL@CBaseMrRecurrenceRule@@UAEXH@Z @ 154 NONAME ; void CBaseMrRecurrenceRule::SetRecurrentCountL(int)
	?SetRecurrentDaysofMonthL@CBaseMrRecurrenceRule@@UAEXAAV?$RArray@UTRecurrentDaysofMonth@MRRecurrenceRule@@@@@Z @ 155 NONAME ; void CBaseMrRecurrenceRule::SetRecurrentDaysofMonthL(class RArray<struct MRRecurrenceRule::TRecurrentDaysofMonth> &)
	?SetRecurrentInterval@CBaseMrRecurrenceRule@@UAEXH@Z @ 156 NONAME ; void CBaseMrRecurrenceRule::SetRecurrentInterval(int)
	?SetRecurrentMonthDaysL@CBaseMrRecurrenceRule@@UAEXAAV?$RArray@H@@@Z @ 157 NONAME ; void CBaseMrRecurrenceRule::SetRecurrentMonthDaysL(class RArray<int> &)
	?SetRecurrentMonthsL@CBaseMrRecurrenceRule@@UAEXAAV?$RArray@W4TMRRecurrenceMonth@MRRecurrenceRule@@@@@Z @ 158 NONAME ; void CBaseMrRecurrenceRule::SetRecurrentMonthsL(class RArray<enum MRRecurrenceRule::TMRRecurrenceMonth> &)
	?SetRecurrentWeekDaysL@CBaseMrRecurrenceRule@@UAEXAAV?$RArray@W4TMRRecurrentDay@MRRecurrenceRule@@@@@Z @ 159 NONAME ; void CBaseMrRecurrenceRule::SetRecurrentWeekDaysL(class RArray<enum MRRecurrenceRule::TMRRecurrentDay> &)
	?SetResponseRequestedL@CBaseMrAttendee@@UAEXH@Z @ 160 NONAME ; void CBaseMrAttendee::SetResponseRequestedL(int)
	?SetStartTimeInUtcL@CBaseMrInfoObject@@UAEXVTTime@@@Z @ 161 NONAME ; void CBaseMrInfoObject::SetStartTimeInUtcL(class TTime)
	?SetSubjectL@CBaseMrInfoObject@@UAEXABVTDesC16@@@Z @ 162 NONAME ; void CBaseMrInfoObject::SetSubjectL(class TDesC16 const &)
	?SetUidL@CBaseMrInfoObject@@QAEXABVTDesC16@@@Z @ 163 NONAME ; void CBaseMrInfoObject::SetUidL(class TDesC16 const &)
	?SetUidL@CBaseMrInfoObject@@QAEXPAVHBufC16@@@Z @ 164 NONAME ; void CBaseMrInfoObject::SetUidL(class HBufC16 *)
	?StartTimeInUtcL@CBaseMrInfoObject@@UBE?AVTTime@@XZ @ 165 NONAME ; class TTime CBaseMrInfoObject::StartTimeInUtcL(void) const
	?StatusL@CBasePlugin@@UAE?AVTFSProgress@@H@Z @ 166 NONAME ; class TFSProgress CBasePlugin::StatusL(int)
	?StoreMessageL@CBasePlugin@@UAEXABVTFSMailMsgId@@AAVCFSMailMessage@@@Z @ 167 NONAME ; void CBasePlugin::StoreMessageL(class TFSMailMsgId const &, class CFSMailMessage &)
	?StoreMessagePartL@CBasePlugin@@UAEXABVTFSMailMsgId@@00AAVCFSMailMessagePart@@@Z @ 168 NONAME ; void CBasePlugin::StoreMessagePartL(class TFSMailMsgId const &, class TFSMailMsgId const &, class TFSMailMsgId const &, class CFSMailMessagePart &)
	?SubjectL@CBaseMrInfoObject@@UBEABVTDesC16@@XZ @ 169 NONAME ; class TDesC16 const & CBaseMrInfoObject::SubjectL(void) const
	?SubscribeMailboxEventsL@CBasePlugin@@UAEXABVTFSMailMsgId@@AAVMFSMailEventObserver@@@Z @ 170 NONAME ; void CBasePlugin::SubscribeMailboxEventsL(class TFSMailMsgId const &, class MFSMailEventObserver &)
	?SupportedFields@CBaseMrInfoObject@@UBEHAAV?$RArray@W4TESMRInfoField@MMRInfoObject@@@@@Z @ 171 NONAME ; int CBaseMrInfoObject::SupportedFields(class RArray<enum MMRInfoObject::TESMRInfoField> &) const
	?SystemEventNotify@CBasePlugin@@UAEXW4TMsgStoreSystemEvent@@@Z @ 172 NONAME ; void CBasePlugin::SystemEventNotify(enum TMsgStoreSystemEvent)
	?TranslateEmailFwAttendeeL@CBasePlugin@@IAEXAAVMMROrganizer@@AAVRMsgStoreAddress@@@Z @ 173 NONAME ; void CBasePlugin::TranslateEmailFwAttendeeL(class MMROrganizer &, class RMsgStoreAddress &)
	?TranslateEmailFwMessageL@CBasePlugin@@MAEXAAVCFSMailMessagePart@@AAVCMsgStoreMessagePart@@H@Z @ 174 NONAME ; void CBasePlugin::TranslateEmailFwMessageL(class CFSMailMessagePart &, class CMsgStoreMessagePart &, int)
	?TranslateEmailFwMrL@CBasePlugin@@MAEXAAVMMRInfoObject@@AAVCMsgStorePropertyContainer@@@Z @ 175 NONAME ; void CBasePlugin::TranslateEmailFwMrL(class MMRInfoObject &, class CMsgStorePropertyContainer &)
	?TranslateMsgStoreMrL@CBasePlugin@@MAEXABVTFSMailMsgId@@AAVCMsgStorePropertyContainer@@1AAVCFSMailMessagePart@@@Z @ 176 NONAME ; void CBasePlugin::TranslateMsgStoreMrL(class TFSMailMsgId const &, class CMsgStorePropertyContainer &, class CMsgStorePropertyContainer &, class CFSMailMessagePart &)
	?TranslateMsgStorePropsL@CBasePlugin@@MAEXABVTFSMailMsgId@@AAVCMsgStorePropertyContainer@@AAVCFSMailMessagePart@@W4TFSMailDetails@@@Z @ 177 NONAME ; void CBasePlugin::TranslateMsgStorePropsL(class TFSMailMsgId const &, class CMsgStorePropertyContainer &, class CFSMailMessagePart &, enum TFSMailDetails)
	?Type@CBaseMrRecurrenceRule@@UBE?AW4TMRRecurrenceType@MRRecurrenceRule@@XZ @ 178 NONAME ; enum MRRecurrenceRule::TMRRecurrenceType CBaseMrRecurrenceRule::Type(void) const
	?UidL@CBaseMrInfoObject@@UBEABVTDesC16@@XZ @ 179 NONAME ; class TDesC16 const & CBaseMrInfoObject::UidL(void) const
	?UnregisterRequestObserver@CBasePlugin@@UAEXH@Z @ 180 NONAME ; void CBasePlugin::UnregisterRequestObserver(int)
	?UnsubscribeMailboxEvents@CBasePlugin@@UAEXABVTFSMailMsgId@@AAVMFSMailEventObserver@@@Z @ 181 NONAME ; void CBasePlugin::UnsubscribeMailboxEvents(class TFSMailMsgId const &, class MFSMailEventObserver &)
	?WizardDataAvailableL@CBasePlugin@@UAEHXZ @ 182 NONAME ; int CBasePlugin::WizardDataAvailableL(void)
	?LoadLC@CResourceLoader@@QAEPAVHBufC16@@H@Z @ 183 NONAME ; class HBufC16 * CResourceLoader::LoadLC(int)
	?Fs@CResourceLoader@@QAEAAVRFs@@XZ @ 184 NONAME ; class RFs & CResourceLoader::Fs(void)
	?NewL@CResourceLoader@@SAPAV1@ABVTDesC16@@@Z @ 185 NONAME ; class CResourceLoader * CResourceLoader::NewL(class TDesC16 const &)
	??1CResourceLoader@@UAE@XZ @ 186 NONAME ; CResourceLoader::~CResourceLoader(void)
	?CreateResourceReaderLC@CResourceLoader@@QBEPAVHBufC8@@AAVTResourceReader@@H@Z @ 187 NONAME ; class HBufC8 * CResourceLoader::CreateResourceReaderLC(class TResourceReader &, int) const
	?Load2LC@CResourceLoader@@QAEPAVHBufC16@@HH@Z @ 188 NONAME ; class HBufC16 * CResourceLoader::Load2LC(int, int)
	?Load2L@CResourceLoader@@QAEPAVHBufC16@@H@Z @ 189 NONAME ; class HBufC16 * CResourceLoader::Load2L(int)
	?Load2LC@CResourceLoader@@QAEPAVHBufC16@@HABVTDesC16@@@Z @ 190 NONAME ; class HBufC16 * CResourceLoader::Load2LC(int, class TDesC16 const &)
	?Load2L@CResourceLoader@@QAEPAVHBufC16@@HH@Z @ 191 NONAME ; class HBufC16 * CResourceLoader::Load2L(int, int)
	?Load2LC@CResourceLoader@@QAEPAVHBufC16@@H@Z @ 192 NONAME ; class HBufC16 * CResourceLoader::Load2LC(int)
	?Load2L@CResourceLoader@@QAEPAVHBufC16@@HABVTDesC16@@@Z @ 193 NONAME ; class HBufC16 * CResourceLoader::Load2L(int, class TDesC16 const &)
	?CalendarFileName@CBasePlugin@@MBEABVTDesC16@@XZ @ 194 NONAME ; class TDesC16 const & CBasePlugin::CalendarFileName(void) const

