EXPORTS
	_ZN10CFSMailBox10ExtensionLERK4TUid @ 1 NONAME
	_ZN10CFSMailBox10GoOfflineLEv @ 2 NONAME
	_ZN10CFSMailBox11CancelSyncLEv @ 3 NONAME
	_ZN10CFSMailBox11ListFoldersE12TFSMailMsgIdR13RPointerArrayI13CFSMailFolderE @ 4 NONAME
	_ZN10CFSMailBox11ListFoldersEv @ 5 NONAME
	_ZN10CFSMailBox11RefreshNowLER22MFSMailRequestObserver @ 6 NONAME
	_ZN10CFSMailBox11RefreshNowLEv @ 7 NONAME
	_ZN10CFSMailBox12CancelSearchEv @ 8 NONAME
	_ZN10CFSMailBox12SendMessageLER14CFSMailMessage @ 9 NONAME
	_ZN10CFSMailBox13CopyMessagesLERK6RArrayI12TFSMailMsgIdERS2_S1_S1_ @ 10 NONAME
	_ZN10CFSMailBox13MoveMessagesLER22MFSMailRequestObserverRK6RArrayI12TFSMailMsgIdES3_S3_ @ 11 NONAME
	_ZN10CFSMailBox13MoveMessagesLERK6RArrayI12TFSMailMsgIdES1_S1_ @ 12 NONAME
	_ZN10CFSMailBox14GetBrandingIdLEv @ 13 NONAME
	_ZN10CFSMailBox15GetConnectionIdERm @ 14 NONAME
	_ZN10CFSMailBox15SetCredentialsLERK7TDesC16S2_ @ 15 NONAME
	_ZN10CFSMailBox16GetMailBoxStatusEv @ 16 NONAME
	_ZN10CFSMailBox16ReleaseExtensionEP15CEmailExtension @ 17 NONAME
	_ZN10CFSMailBox18CreateReplyMessageE12TFSMailMsgIdiRK7TDesC16 @ 18 NONAME
	_ZN10CFSMailBox18GetLastSyncStatusLEv @ 19 NONAME
	_ZN10CFSMailBox19CreateMessageToSendEv @ 20 NONAME
	_ZN10CFSMailBox19GetStandardFolderIdE13TFSFolderType @ 21 NONAME
	_ZN10CFSMailBox20CreateForwardMessageE12TFSMailMsgIdRK7TDesC16 @ 22 NONAME
	_ZN10CFSMailBox22ClearSearchResultCacheEv @ 23 NONAME
	_ZN10CFSMailBox22CreateMessageFromFileLERK5RFile @ 24 NONAME
	_ZN10CFSMailBox28RemoveDownLoadedAttachmentsLEv @ 25 NONAME
	_ZN10CFSMailBox30IsConnectionAllowedWhenRoamingERi @ 26 NONAME
	_ZN10CFSMailBox4NewLE12TFSMailMsgId @ 27 NONAME
	_ZN10CFSMailBox5NewLCE12TFSMailMsgId @ 28 NONAME
	_ZN10CFSMailBox7SearchLERK13RPointerArrayI7TDesC16ERK19TFSMailSortCriteriaR24MFSMailBoxSearchObserver @ 29 NONAME
	_ZN10CFSMailBox7SearchLERK13RPointerArrayI7TDesC16ERK19TFSMailSortCriteriaR24MFSMailBoxSearchObserver6RArrayI12TFSMailMsgIdE @ 30 NONAME
	_ZN10CFSMailBox9GoOnlineLEv @ 31 NONAME
	_ZN10CFSMailBoxD0Ev @ 32 NONAME
	_ZN10CFSMailBoxD1Ev @ 33 NONAME
	_ZN10CFSMailBoxD2Ev @ 34 NONAME
	_ZN13CFSMailFolder10ExtensionLERK4TUid @ 35 NONAME
	_ZN13CFSMailFolder13ListMessagesLE14TFSMailDetailsRK6RArrayI19TFSMailSortCriteriaE @ 36 NONAME
	_ZN13CFSMailFolder14FetchMessagesLERK6RArrayI12TFSMailMsgIdE14TFSMailDetailsR22MFSMailRequestObserver @ 37 NONAME
	_ZN13CFSMailFolder14GetSubFoldersLER13RPointerArrayIS_E @ 38 NONAME
	_ZN13CFSMailFolder14RemoveMessageLE12TFSMailMsgId @ 39 NONAME
	_ZN13CFSMailFolder16ReleaseExtensionEP15CEmailExtension @ 40 NONAME
	_ZN13CFSMailFolder17SupportsCopyFromLE13TFSFolderType @ 41 NONAME
	_ZN13CFSMailFolder17SupportsMoveFromLE13TFSFolderType @ 42 NONAME
	_ZN13CFSMailFolder28RemoveDownLoadedAttachmentsLEv @ 43 NONAME
	_ZN13CFSMailFolder4NewLE12TFSMailMsgId @ 44 NONAME
	_ZN13CFSMailFolder5NewLCE12TFSMailMsgId @ 45 NONAME
	_ZN13CFSMailFolderD0Ev @ 46 NONAME
	_ZN13CFSMailFolderD1Ev @ 47 NONAME
	_ZN13CFSMailFolderD2Ev @ 48 NONAME
	_ZN14CFSMailAddress14SetDisplayNameERK7TDesC16 @ 49 NONAME
	_ZN14CFSMailAddress15SetEmailAddressERK7TDesC16 @ 50 NONAME
	_ZN14CFSMailAddress4NewLEv @ 51 NONAME
	_ZN14CFSMailAddress5NewLCEv @ 52 NONAME
	_ZN14CFSMailAddressD0Ev @ 53 NONAME
	_ZN14CFSMailAddressD1Ev @ 54 NONAME
	_ZN14CFSMailAddressD2Ev @ 55 NONAME
	_ZN14CFSMailBoxBase10GetRCLInfoER4TUidRj @ 56 NONAME
	_ZN14CFSMailBoxBase10SetRCLInfoE4TUidj @ 57 NONAME
	_ZN14CFSMailBoxBase14GetSettingsUidEv @ 58 NONAME
	_ZN14CFSMailBoxBase14OwnMailAddressEv @ 59 NONAME
	_ZN14CFSMailBoxBase14SetSettingsUidE4TUid @ 60 NONAME
	_ZN14CFSMailBoxBase16MRInfoProcessorLEv @ 61 NONAME
	_ZN14CFSMailBoxBase18SetOwnMailAddressLEP14CFSMailAddress @ 62 NONAME
	_ZN14CFSMailBoxBase19SetMRInfoProcessorLEP16MMRInfoProcessor @ 63 NONAME
	_ZN14CFSMailBoxBase20IsMRInfoProcessorSetEv @ 64 NONAME
	_ZN14CFSMailBoxBase4NewLE12TFSMailMsgId @ 65 NONAME
	_ZN14CFSMailBoxBase5NewLCE12TFSMailMsgId @ 66 NONAME
	_ZN14CFSMailBoxBase7SetNameERK7TDesC16 @ 67 NONAME
	_ZN14CFSMailBoxBase9SetStatusE16TFSMailBoxStatus @ 68 NONAME
	_ZN14CFSMailBoxBaseD0Ev @ 69 NONAME
	_ZN14CFSMailBoxBaseD1Ev @ 70 NONAME
	_ZN14CFSMailBoxBaseD2Ev @ 71 NONAME
	_ZN14CFSMailMessage12SaveMessageLEv @ 72 NONAME
	_ZN14CFSMailMessage13HtmlBodyPartLEv @ 73 NONAME
	_ZN14CFSMailMessage15AttachmentListLER13RPointerArrayI18CFSMailMessagePartE @ 74 NONAME
	_ZN14CFSMailMessage17AddNewAttachmentLER5RFileRK6TDesC8 @ 75 NONAME
	_ZN14CFSMailMessage17AddNewAttachmentLERK7TDesC1612TFSMailMsgId @ 76 NONAME
	_ZN14CFSMailMessage18PlainTextBodyPartLEv @ 77 NONAME
	_ZN14CFSMailMessage4NewLE12TFSMailMsgId @ 78 NONAME
	_ZN14CFSMailMessage5NewLCE12TFSMailMsgId @ 79 NONAME
	_ZN14CFSMailMessageD0Ev @ 80 NONAME
	_ZN14CFSMailMessageD1Ev @ 81 NONAME
	_ZN14CFSMailMessageD2Ev @ 82 NONAME
	_ZN15CEmailExtensionC1ERK4TUid @ 83 NONAME
	_ZN15CEmailExtensionC2ERK4TUid @ 84 NONAME
	_ZN15CEmailExtensionD0Ev @ 85 NONAME
	_ZN15CEmailExtensionD1Ev @ 86 NONAME
	_ZN15CEmailExtensionD2Ev @ 87 NONAME
	_ZN15CFSMailIterator4NewLER15MFSMailIteratorP21CFSMailRequestHandler @ 88 NONAME
	_ZN15CFSMailIterator5NewLCER15MFSMailIteratorP21CFSMailRequestHandler @ 89 NONAME
	_ZN15CFSMailIterator5NextLE12TFSMailMsgIdjR13RPointerArrayI14CFSMailMessageE @ 90 NONAME
	_ZN15CFSMailIterator5NextLERK7TDesC16jR13RPointerArrayI14CFSMailMessageE @ 91 NONAME
	_ZN15CFSMailIterator9PreviousLE12TFSMailMsgIdjR13RPointerArrayI14CFSMailMessageE @ 92 NONAME
	_ZN15CFSMailIterator9PreviousLERK7TDesC16jR13RPointerArrayI14CFSMailMessageE @ 93 NONAME
	_ZN15CFSMailIteratorD0Ev @ 94 NONAME
	_ZN15CFSMailIteratorD1Ev @ 95 NONAME
	_ZN15CFSMailIteratorD2Ev @ 96 NONAME
	_ZN16CExtendableEmail10ExtensionLERK4TUid @ 97 NONAME
	_ZN16CExtendableEmail16ReleaseExtensionEP15CEmailExtension @ 98 NONAME
	_ZN16TEmailExtensions4AddLEP15CEmailExtension @ 99 NONAME
	_ZN16TEmailExtensions6RemoveEPK15CEmailExtension @ 100 NONAME
	_ZN16TEmailExtensionsC1Ev @ 101 NONAME
	_ZN16TEmailExtensionsC2Ev @ 102 NONAME
	_ZN16TEmailExtensionsD1Ev @ 103 NONAME
	_ZN16TEmailExtensionsD2Ev @ 104 NONAME
	_ZN17CFSMailFolderBase10ConstructLE12TFSMailMsgId @ 105 NONAME
	_ZN17CFSMailFolderBase12SetMailBoxIdE12TFSMailMsgId @ 106 NONAME
	_ZN17CFSMailFolderBase13SetFolderNameERK7TDesC16 @ 107 NONAME
	_ZN17CFSMailFolderBase13SetFolderTypeE13TFSFolderType @ 108 NONAME
	_ZN17CFSMailFolderBase14BlockCopyFromLE6RArrayI13TFSFolderTypeE16TFSMailBoxStatus @ 109 NONAME
	_ZN17CFSMailFolderBase14BlockMoveFromLE6RArrayI13TFSFolderTypeE16TFSMailBoxStatus @ 110 NONAME
	_ZN17CFSMailFolderBase14SetUnreadCountEj @ 111 NONAME
	_ZN17CFSMailFolderBase14SetUnseenCountEj @ 112 NONAME
	_ZN17CFSMailFolderBase15SetMessageCountEj @ 113 NONAME
	_ZN17CFSMailFolderBase17SetParentFolderIdE12TFSMailMsgId @ 114 NONAME
	_ZN17CFSMailFolderBase17SetSubFolderCountEj @ 115 NONAME
	_ZN17CFSMailFolderBase4NewLE12TFSMailMsgId @ 116 NONAME
	_ZN17CFSMailFolderBase5NewLCE12TFSMailMsgId @ 117 NONAME
	_ZN17CFSMailFolderBaseD0Ev @ 118 NONAME
	_ZN17CFSMailFolderBaseD1Ev @ 119 NONAME
	_ZN17CFSMailFolderBaseD2Ev @ 120 NONAME
	_ZN18CFSMailMessageBase10ExtensionLERK4TUid @ 121 NONAME
	_ZN18CFSMailMessageBase10SetSubjectERK7TDesC16 @ 122 NONAME
	_ZN18CFSMailMessageBase11SetFolderIdE12TFSMailMsgId @ 123 NONAME
	_ZN18CFSMailMessageBase12SetMailBoxIdE12TFSMailMsgId @ 124 NONAME
	_ZN18CFSMailMessageBase12SetRelatedToE12TFSMailMsgId @ 125 NONAME
	_ZN18CFSMailMessageBase14RequestHandlerEv @ 126 NONAME
	_ZN18CFSMailMessageBase15GetCCRecipientsEv @ 127 NONAME
	_ZN18CFSMailMessageBase15GetToRecipientsEv @ 128 NONAME
	_ZN18CFSMailMessageBase16GetBCCRecipientsEv @ 129 NONAME
	_ZN18CFSMailMessageBase16ReleaseExtensionEP15CEmailExtension @ 130 NONAME
	_ZN18CFSMailMessageBase17AppendCCRecipientEP14CFSMailAddress @ 131 NONAME
	_ZN18CFSMailMessageBase17AppendToRecipientEP14CFSMailAddress @ 132 NONAME
	_ZN18CFSMailMessageBase17ClearCcRecipientsEv @ 133 NONAME
	_ZN18CFSMailMessageBase17ClearToRecipientsEv @ 134 NONAME
	_ZN18CFSMailMessageBase17GetReplyToAddressEv @ 135 NONAME
	_ZN18CFSMailMessageBase17SetReplyToAddressEP14CFSMailAddress @ 136 NONAME
	_ZN18CFSMailMessageBase18AppendBCCRecipientEP14CFSMailAddress @ 137 NONAME
	_ZN18CFSMailMessageBase18ClearBccRecipientsEv @ 138 NONAME
	_ZN18CFSMailMessageBase4NewLE12TFSMailMsgId @ 139 NONAME
	_ZN18CFSMailMessageBase5NewLCE12TFSMailMsgId @ 140 NONAME
	_ZN18CFSMailMessageBase7SetDateE5TTime @ 141 NONAME
	_ZN18CFSMailMessageBase7SetFlagEi @ 142 NONAME
	_ZN18CFSMailMessageBase9ResetFlagEi @ 143 NONAME
	_ZN18CFSMailMessageBase9SetSenderEP14CFSMailAddress @ 144 NONAME
	_ZN18CFSMailMessageBaseD0Ev @ 145 NONAME
	_ZN18CFSMailMessageBaseD1Ev @ 146 NONAME
	_ZN18CFSMailMessageBaseD2Ev @ 147 NONAME
	_ZN18CFSMailMessagePart10ChildPartLE12TFSMailMsgId @ 148 NONAME
	_ZN18CFSMailMessagePart10SetContentER6TDes16 @ 149 NONAME
	_ZN18CFSMailMessagePart11ChildPartsLER13RPointerArrayIS_E @ 150 NONAME
	_ZN18CFSMailMessagePart11IsMRInfoSetEv @ 151 NONAME
	_ZN18CFSMailMessagePart13FindBodyPartLERK7TDesC16 @ 152 NONAME
	_ZN18CFSMailMessagePart13NewChildPartLE12TFSMailMsgIdRK7TDesC16 @ 153 NONAME
	_ZN18CFSMailMessagePart13SetContentIDLERK7TDesC16 @ 154 NONAME
	_ZN18CFSMailMessagePart14GetContentTypeEv @ 155 NONAME
	_ZN18CFSMailMessagePart14RemoveContentLEv @ 156 NONAME
	_ZN18CFSMailMessagePart14SetContentSizeEj @ 157 NONAME
	_ZN18CFSMailMessagePart14SetContentTypeERK7TDesC16 @ 158 NONAME
	_ZN18CFSMailMessagePart15AttachmentNameLEv @ 159 NONAME
	_ZN18CFSMailMessagePart15GetContentClassEv @ 160 NONAME
	_ZN18CFSMailMessagePart15GetContentFileLEv @ 161 NONAME
	_ZN18CFSMailMessagePart15SetContentClassERK7TDesC16 @ 162 NONAME
	_ZN18CFSMailMessagePart16CopyContentFileLERK7TDesC16 @ 163 NONAME
	_ZN18CFSMailMessagePart16RemoveChildPartLE12TFSMailMsgId @ 164 NONAME
	_ZN18CFSMailMessagePart17AddNewAttachmentLERK7TDesC1612TFSMailMsgIdS2_ @ 165 NONAME
	_ZN18CFSMailMessagePart17FetchMessagePartLE12TFSMailMsgIdR22MFSMailRequestObserverj @ 166 NONAME
	_ZN18CFSMailMessagePart18AppendAttachmentsLER13RPointerArrayIS_E @ 167 NONAME
	_ZN18CFSMailMessagePart18ContentDescriptionEv @ 168 NONAME
	_ZN18CFSMailMessagePart18ContentDispositionEv @ 169 NONAME
	_ZN18CFSMailMessagePart18ContentTypeMatchesERK7TDesC16 @ 170 NONAME
	_ZN18CFSMailMessagePart18SetAttachmentNameLERK7TDesC16 @ 171 NONAME
	_ZN18CFSMailMessagePart19FetchMessagesPartsLERK6RArrayI12TFSMailMsgIdER22MFSMailRequestObserverj @ 172 NONAME
	_ZN18CFSMailMessagePart19GetContentToBufferLER6TDes16j @ 173 NONAME
	_ZN18CFSMailMessagePart19SetContentFromFileLERK7TDesC16 @ 174 NONAME
	_ZN18CFSMailMessagePart19SetReadOnlyPartSizeEj @ 175 NONAME
	_ZN18CFSMailMessagePart21ContentTypeParametersEv @ 176 NONAME
	_ZN18CFSMailMessagePart21SetContentDescriptionERK7TDesC16 @ 177 NONAME
	_ZN18CFSMailMessagePart21SetContentDispositionERK7TDesC16 @ 178 NONAME
	_ZN18CFSMailMessagePart21SetFetchedContentSizeEj @ 179 NONAME
	_ZN18CFSMailMessagePart21SetMessagePartsStatusE17TFSPartFetchState @ 180 NONAME
	_ZN18CFSMailMessagePart23CopyMessageAsChildPartLE12TFSMailMsgIdP14CFSMailMessage @ 181 NONAME
	_ZN18CFSMailMessagePart28ContentDispositionParametersEv @ 182 NONAME
	_ZN18CFSMailMessagePart28RemoveDownLoadedAttachmentsLEv @ 183 NONAME
	_ZN18CFSMailMessagePart4NewLE12TFSMailMsgIdS0_ @ 184 NONAME
	_ZN18CFSMailMessagePart5NewLCE12TFSMailMsgIdS0_ @ 185 NONAME
	_ZN18CFSMailMessagePart5SaveLEv @ 186 NONAME
	_ZN18CFSMailMessagePart9ContentIDEv @ 187 NONAME
	_ZN18CFSMailMessagePart9GetMRInfoEv @ 188 NONAME
	_ZN18CFSMailMessagePart9SetMRInfoEP13MMRInfoObject @ 189 NONAME
	_ZN18CFSMailMessagePartD0Ev @ 190 NONAME
	_ZN18CFSMailMessagePartD1Ev @ 191 NONAME
	_ZN18CFSMailMessagePartD2Ev @ 192 NONAME
	_ZN21CFSMailRequestHandler10AddPluginLE4TUidP13CFSMailPlugin @ 193 NONAME
	_ZN21CFSMailRequestHandler11GetTempDirLEv @ 194 NONAME
	_ZN21CFSMailRequestHandler13CleanTempDirLEv @ 195 NONAME
	_ZN21CFSMailRequestHandler14CancelRequestLEi @ 196 NONAME
	_ZN21CFSMailRequestHandler14GetPluginByUidE12TFSMailMsgId @ 197 NONAME
	_ZN21CFSMailRequestHandler15CompleteRequestEi @ 198 NONAME
	_ZN21CFSMailRequestHandler17InitAsyncRequestLE4TUidR22MFSMailRequestObserver @ 199 NONAME
	_ZN21CFSMailRequestHandler18CancelAllRequestsLEv @ 200 NONAME
	_ZN21CFSMailRequestHandler4NewLER13RPointerArrayI26CImplementationInformationERS0_I13CFSMailPluginE @ 201 NONAME
	_ZN21CFSMailRequestHandler5NewLCER13RPointerArrayI26CImplementationInformationERS0_I13CFSMailPluginE @ 202 NONAME
	_ZN21CFSMailRequestHandlerC1Ev @ 203 NONAME
	_ZN21CFSMailRequestHandlerC2Ev @ 204 NONAME
	_ZN21CFSMailRequestHandlerD0Ev @ 205 NONAME
	_ZN21CFSMailRequestHandlerD1Ev @ 206 NONAME
	_ZN21CFSMailRequestHandlerD2Ev @ 207 NONAME
	_ZNK10CFSMailBox13HasCapabilityE22TFSMailBoxCapabilities @ 208 NONAME
	_ZNK10CFSMailBox16CurrentSyncStateEv @ 209 NONAME
	_ZNK10CFSMailBox9ListMrusLEv @ 210 NONAME
	_ZNK14CFSMailAddress14GetDisplayNameEv @ 211 NONAME
	_ZNK14CFSMailAddress15GetEmailAddressEv @ 212 NONAME
	_ZNK14CFSMailBoxBase5GetIdEv @ 213 NONAME
	_ZNK14CFSMailBoxBase7GetNameEv @ 214 NONAME
	_ZNK14CFSMailBoxBase9GetStatusEv @ 215 NONAME
	_ZNK14CFSMailMessage10IsMessageLEv @ 216 NONAME
	_ZNK15CEmailExtension3UidEv @ 217 NONAME
	_ZNK16TEmailExtensions13FindExtensionERK4TUid @ 218 NONAME
	_ZNK16TEmailExtensions9ExtensionEi @ 219 NONAME
	_ZNK17CFSMailFolderBase11GetFolderIdEv @ 220 NONAME
	_ZNK17CFSMailFolderBase12GetMailBoxIdEv @ 221 NONAME
	_ZNK17CFSMailFolderBase13GetFolderNameEv @ 222 NONAME
	_ZNK17CFSMailFolderBase13GetFolderTypeEv @ 223 NONAME
	_ZNK17CFSMailFolderBase14GetUnreadCountEv @ 224 NONAME
	_ZNK17CFSMailFolderBase14GetUnseenCountEv @ 225 NONAME
	_ZNK17CFSMailFolderBase15GetMessageCountEv @ 226 NONAME
	_ZNK17CFSMailFolderBase17GetParentFolderIdEv @ 227 NONAME
	_ZNK17CFSMailFolderBase17GetSubFolderCountEv @ 228 NONAME
	_ZNK18CFSMailMessageBase10GetSubjectEv @ 229 NONAME
	_ZNK18CFSMailMessageBase11GetFolderIdEv @ 230 NONAME
	_ZNK18CFSMailMessageBase11IsRelatedToEv @ 231 NONAME
	_ZNK18CFSMailMessageBase12GetMailBoxIdEv @ 232 NONAME
	_ZNK18CFSMailMessageBase12GetMessageIdEv @ 233 NONAME
	_ZNK18CFSMailMessageBase7GetDateEv @ 234 NONAME
	_ZNK18CFSMailMessageBase8GetFlagsEv @ 235 NONAME
	_ZNK18CFSMailMessageBase9GetSenderEv @ 236 NONAME
	_ZNK18CFSMailMessageBase9IsFlagSetEi @ 237 NONAME
	_ZNK18CFSMailMessagePart10IsMessageLEv @ 238 NONAME
	_ZNK18CFSMailMessagePart11ContentSizeEv @ 239 NONAME
	_ZNK18CFSMailMessagePart14FetchLoadStateEv @ 240 NONAME
	_ZNK18CFSMailMessagePart16ReadOnlyPartSizeEv @ 241 NONAME
	_ZNK18CFSMailMessagePart18FetchedContentSizeEv @ 242 NONAME
	_ZNK18CFSMailMessagePart9GetPartIdEv @ 243 NONAME
	_ZTI10CFSMailBox @ 244 NONAME
	_ZTI13CFSMailFolder @ 245 NONAME
	_ZTI14CFSMailAddress @ 246 NONAME
	_ZTI14CFSMailBoxBase @ 247 NONAME
	_ZTI14CFSMailMessage @ 248 NONAME
	_ZTI15CEmailExtension @ 249 NONAME
	_ZTI15CFSMailIterator @ 250 NONAME
	_ZTI16CExtendableEmail @ 251 NONAME
	_ZTI17CFSMailFolderBase @ 252 NONAME
	_ZTI17CFSMailPluginData @ 253 NONAME
	_ZTI18CFSMailMessageBase @ 254 NONAME
	_ZTI18CFSMailMessagePart @ 255 NONAME
	_ZTI21CFSMailRequestHandler @ 256 NONAME
	_ZTI22CFSMailRequestObserver @ 257 NONAME
	_ZTV10CFSMailBox @ 258 NONAME
	_ZTV13CFSMailFolder @ 259 NONAME
	_ZTV14CFSMailAddress @ 260 NONAME
	_ZTV14CFSMailBoxBase @ 261 NONAME
	_ZTV14CFSMailMessage @ 262 NONAME
	_ZTV15CEmailExtension @ 263 NONAME
	_ZTV15CFSMailIterator @ 264 NONAME
	_ZTV16CExtendableEmail @ 265 NONAME
	_ZTV17CFSMailFolderBase @ 266 NONAME
	_ZTV17CFSMailPluginData @ 267 NONAME
	_ZTV18CFSMailMessageBase @ 268 NONAME
	_ZTV18CFSMailMessagePart @ 269 NONAME
	_ZTV21CFSMailRequestHandler @ 270 NONAME
	_ZTV22CFSMailRequestObserver @ 271 NONAME
	_ZThn4_N15CFSMailIterator5NextLE12TFSMailMsgIdjR13RPointerArrayI14CFSMailMessageE @ 272 NONAME
	_ZThn4_N15CFSMailIterator5NextLERK7TDesC16jR13RPointerArrayI14CFSMailMessageE @ 273 NONAME
	_ZThn4_N15CFSMailIterator9PreviousLE12TFSMailMsgIdjR13RPointerArrayI14CFSMailMessageE @ 274 NONAME
	_ZThn4_N15CFSMailIterator9PreviousLERK7TDesC16jR13RPointerArrayI14CFSMailMessageE @ 275 NONAME
	_ZThn4_N15CFSMailIteratorD0Ev @ 276 NONAME
	_ZThn4_N15CFSMailIteratorD1Ev @ 277 NONAME

