EXPORTS
	_Z32MessageStoreServerThreadFunctionPv @ 1 NONAME
	_ZN10CCryptoAPI9Sha1HashLERK6TDesC8R5RBuf8 @ 2 NONAME ABSENT
	_ZTI10CStringRow @ 3 NONAME ; #<TI>#
	_ZTI11CIntegerRow @ 4 NONAME ; #<TI>#
	_ZTI11CMruAddress @ 5 NONAME ; #<TI>#
	_ZTI13CSearchResult @ 6 NONAME ; #<TI>#
	_ZTI14CDeleteHandler @ 7 NONAME ; #<TI>#
	_ZTI15CBufferedReader @ 8 NONAME ; #<TI>#
	_ZTI15CBufferedWriter @ 9 NONAME ; #<TI>#
	_ZTI15CContainerStore @ 10 NONAME ; #<TI>#
	_ZTI15CMruAddressList @ 11 NONAME ; #<TI>#
	_ZTI15CShutdownServer @ 12 NONAME ; #<TI>#
	_ZTI17CIntegerSortGroup @ 13 NONAME ; #<TI>#
	_ZTI18CCompactionHandler @ 14 NONAME ; #<TI>#
	_ZTI19CAccountsSerializer @ 15 NONAME ; #<TI>#
	_ZTI19CMessageStoreServer @ 16 NONAME ; #<TI>#
	_ZTI20CContainerStoreTable @ 17 NONAME ; #<TI>#
	_ZTI20CContainerStoreUtils @ 18 NONAME ; #<TI>#
	_ZTI20CMessageStoreSession @ 19 NONAME ; #<TI>#
	_ZTI22CBackupRestoreNotifier @ 20 NONAME ; #<TI>#
	_ZTI25CContainerStoreEncryption @ 21 NONAME ; #<TI>#
	_ZTI25CMsgStoreSortResultRowSet @ 22 NONAME ; #<TI>#
	_ZTI27CContainerStoreAccountTable @ 23 NONAME ; #<TI>#
	_ZTI27CContainerStoreGeneralTable @ 24 NONAME ; #<TI>#
	_ZTI27CContainerStoreSortingTable @ 25 NONAME ; #<TI>#
	_ZTI27CMessageStoreEncryptHandler @ 26 NONAME ; #<TI>#
	_ZTI27CMsgStoreInMemorySortRowSet @ 27 NONAME ; #<TI>#
	_ZTI28CContainerStoreSearchHandler @ 28 NONAME ; #<TI>#
	_ZTI29CContainerStoreContentManager @ 29 NONAME ; #<TI>#
	_ZTI30CContainerStoreContainersTable @ 30 NONAME ; #<TI>#
	_ZTI30CContainerStoreMruAddressTable @ 31 NONAME ; #<TI>#
	_ZTI31CMsgStoreStringSortResultRowSet @ 32 NONAME ; #<TI>#
	_ZTI32CContainerStoreSearchResultTable @ 33 NONAME ; #<TI>#
	_ZTV10CStringRow @ 34 NONAME ; #<VT>#
	_ZTV11CIntegerRow @ 35 NONAME ; #<VT>#
	_ZTV11CMruAddress @ 36 NONAME ; #<VT>#
	_ZTV13CSearchResult @ 37 NONAME ; #<VT>#
	_ZTV14CDeleteHandler @ 38 NONAME ; #<VT>#
	_ZTV15CBufferedReader @ 39 NONAME ; #<VT>#
	_ZTV15CBufferedWriter @ 40 NONAME ; #<VT>#
	_ZTV15CContainerStore @ 41 NONAME ; #<VT>#
	_ZTV15CMruAddressList @ 42 NONAME ; #<VT>#
	_ZTV15CShutdownServer @ 43 NONAME ; #<VT>#
	_ZTV17CIntegerSortGroup @ 44 NONAME ; #<VT>#
	_ZTV18CCompactionHandler @ 45 NONAME ; #<VT>#
	_ZTV19CAccountsSerializer @ 46 NONAME ; #<VT>#
	_ZTV19CMessageStoreServer @ 47 NONAME ; #<VT>#
	_ZTV20CContainerStoreTable @ 48 NONAME ; #<VT>#
	_ZTV20CContainerStoreUtils @ 49 NONAME ; #<VT>#
	_ZTV20CMessageStoreSession @ 50 NONAME ; #<VT>#
	_ZTV22CBackupRestoreNotifier @ 51 NONAME ; #<VT>#
	_ZTV25CContainerStoreEncryption @ 52 NONAME ; #<VT>#
	_ZTV25CMsgStoreSortResultRowSet @ 53 NONAME ; #<VT>#
	_ZTV27CContainerStoreAccountTable @ 54 NONAME ; #<VT>#
	_ZTV27CContainerStoreGeneralTable @ 55 NONAME ; #<VT>#
	_ZTV27CContainerStoreSortingTable @ 56 NONAME ; #<VT>#
	_ZTV27CMessageStoreEncryptHandler @ 57 NONAME ; #<VT>#
	_ZTV27CMsgStoreInMemorySortRowSet @ 58 NONAME ; #<VT>#
	_ZTV28CContainerStoreSearchHandler @ 59 NONAME ; #<VT>#
	_ZTV29CContainerStoreContentManager @ 60 NONAME ; #<VT>#
	_ZTV30CContainerStoreContainersTable @ 61 NONAME ; #<VT>#
	_ZTV30CContainerStoreMruAddressTable @ 62 NONAME ; #<VT>#
	_ZTV31CMsgStoreStringSortResultRowSet @ 63 NONAME ; #<VT>#
	_ZTV32CContainerStoreSearchResultTable @ 64 NONAME ; #<VT>#

