EXPORTS
	?DeleteMailBoxByUidL@CFSMailClient@@QAEHVTFSMailMsgId@@AAVMFSMailRequestObserver@@@Z @ 1 NONAME ; int CFSMailClient::DeleteMailBoxByUidL(class TFSMailMsgId, class MFSMailRequestObserver &)
	?CancelL@CFSMailClient@@QAEXH@Z @ 2 NONAME ; void CFSMailClient::CancelL(int)
	?CleanTempDirL@CFSMailClient@@QAEXXZ @ 3 NONAME ; void CFSMailClient::CleanTempDirL(void)
	?Close@CFSMailClient@@QAEXXZ @ 4 NONAME ; void CFSMailClient::Close(void)
	?DeleteMessagesByUidL@CFSMailClient@@QAEXVTFSMailMsgId@@0ABV?$RArray@VTFSMailMsgId@@@@@Z @ 5 NONAME ; void CFSMailClient::DeleteMessagesByUidL(class TFSMailMsgId, class TFSMailMsgId, class RArray<class TFSMailMsgId> const &)
	?WizardDataAvailableL@CFSMailClient@@QAEHXZ @ 6 NONAME ; int CFSMailClient::WizardDataAvailableL(void)
	?ListMailBoxes@CFSMailClient@@QAEHVTFSMailMsgId@@AAV?$RPointerArray@VCFSMailBox@@@@@Z @ 7 NONAME ; int CFSMailClient::ListMailBoxes(class TFSMailMsgId, class RPointerArray<class CFSMailBox> &)
	?GetTempDirL@CFSMailClient@@QAEAAVTDesC16@@XZ @ 8 NONAME ; class TDesC16 & CFSMailClient::GetTempDirL(void)
	?GetFolderByUidL@CFSMailClient@@QAEPAVCFSMailFolder@@VTFSMailMsgId@@0@Z @ 9 NONAME ; class CFSMailFolder * CFSMailClient::GetFolderByUidL(class TFSMailMsgId, class TFSMailMsgId)
	?NewL@CFSMailClient@@SAPAV1@H@Z @ 10 NONAME ; class CFSMailClient * CFSMailClient::NewL(int)
	?SetMailboxName@CFSMailClient@@QAEXVTFSMailMsgId@@ABVTDesC16@@@Z @ 11 NONAME ; void CFSMailClient::SetMailboxName(class TFSMailMsgId, class TDesC16 const &)
	?GetMessageByUidL@CFSMailClient@@QAEPAVCFSMailMessage@@VTFSMailMsgId@@00W4TFSMailDetails@@@Z @ 12 NONAME ; class CFSMailMessage * CFSMailClient::GetMessageByUidL(class TFSMailMsgId, class TFSMailMsgId, class TFSMailMsgId, enum TFSMailDetails)
	?GetMailBoxByUidL@CFSMailClient@@QAEPAVCFSMailBox@@VTFSMailMsgId@@@Z @ 13 NONAME ; class CFSMailBox * CFSMailClient::GetMailBoxByUidL(class TFSMailMsgId)
	?AuthenticateL@CFSMailClient@@QAEHAAVMFSMailRequestObserver@@@Z @ 14 NONAME ; int CFSMailClient::AuthenticateL(class MFSMailRequestObserver &)
	?GetBrandManagerL@CFSMailClient@@QAEAAVMFSMailBrandManager@@XZ @ 15 NONAME ; class MFSMailBrandManager & CFSMailClient::GetBrandManagerL(void)
	??1CFSMailClient@@EAE@XZ @ 16 NONAME ; CFSMailClient::~CFSMailClient(void)
	?NewLC@CFSMailClient@@SAPAV1@H@Z @ 17 NONAME ; class CFSMailClient * CFSMailClient::NewLC(int)
	?UnregisterRequestObserver@CFSMailClient@@QAEXH@Z @ 18 NONAME ; void CFSMailClient::UnregisterRequestObserver(int)
	?RemoveObserver@CFSMailClient@@QAEXAAVMFSMailEventObserver@@@Z @ 19 NONAME ; void CFSMailClient::RemoveObserver(class MFSMailEventObserver &)
	?SubscribeMailboxEventsL@CFSMailClient@@QAEXVTFSMailMsgId@@AAVMFSMailEventObserver@@@Z @ 20 NONAME ; void CFSMailClient::SubscribeMailboxEventsL(class TFSMailMsgId, class MFSMailEventObserver &)
	?ListMessages@CFSMailClient@@QAEPAVMFSMailIterator@@VTFSMailMsgId@@0W4TFSMailDetails@@ABV?$RArray@VTFSMailSortCriteria@@@@@Z @ 21 NONAME ; class MFSMailIterator * CFSMailClient::ListMessages(class TFSMailMsgId, class TFSMailMsgId, enum TFSMailDetails, class RArray<class TFSMailSortCriteria> const &)
	?UnsubscribeMailboxEvents@CFSMailClient@@QAEXVTFSMailMsgId@@AAVMFSMailEventObserver@@@Z @ 22 NONAME ; void CFSMailClient::UnsubscribeMailboxEvents(class TFSMailMsgId, class MFSMailEventObserver &)
	?CancelAllL@CFSMailClient@@QAEXXZ @ 23 NONAME ; void CFSMailClient::CancelAllL(void)
	?NewL@CFSMailClient@@SAPAV1@XZ @ 24 NONAME ; class CFSMailClient * CFSMailClient::NewL(void)
	?AddObserverL@CFSMailClient@@QAEXAAVMFSMailEventObserver@@@Z @ 25 NONAME ; void CFSMailClient::AddObserverL(class MFSMailEventObserver &)

