EXPORTS
	_ZN10NmUiEngine11checkOutboxERK4NmId @ 1 NONAME
	_ZN10NmUiEngine11mailboxByIdERK4NmId @ 2 NONAME
	_ZN10NmUiEngine11qt_metacallEN11QMetaObject4CallEiPPv @ 3 NONAME
	_ZN10NmUiEngine11qt_metacastEPKc @ 4 NONAME
	_ZN10NmUiEngine11saveMessageERK9NmMessage @ 5 NONAME
	_ZN10NmUiEngine11sendMessageEP9NmMessageRK5QListIP11NmOperationE @ 6 NONAME
	_ZN10NmUiEngine12fetchMessageERK4NmIdS2_S2_ @ 7 NONAME
	_ZN10NmUiEngine12setEnvelopesERK4NmIdS2_20NmEnvelopePropertiesRK5QListIPK17NmMessageEnvelopeE @ 8 NONAME
	_ZN10NmUiEngine13removeMessageERK4NmIdS2_S2_ @ 9 NONAME
	_ZN10NmUiEngine14addAttachmentsERK9NmMessageRK5QListI7QStringE @ 10 NONAME
	_ZN10NmUiEngine14deleteMessagesERK4NmIdS2_RK5QListIS0_E @ 11 NONAME
	_ZN10NmUiEngine14refreshMailboxERK4NmId @ 12 NONAME
	_ZN10NmUiEngine14storeOperationEP11NmOperation @ 13 NONAME
	_ZN10NmUiEngine14syncStateEventE11NmSyncStateRK4NmId @ 14 NONAME
	_ZN10NmUiEngine15connectionEventE14NmConnectStateRK4NmId @ 15 NONAME
	_ZN10NmUiEngine15connectionStateERK4NmId @ 16 NONAME
	_ZN10NmUiEngine15mReferenceCountE @ 17 NONAME DATA 4
	_ZN10NmUiEngine15messagePartFileERK4NmIdS2_S2_S2_ @ 18 NONAME
	_ZN10NmUiEngine15releaseInstanceERPS_ @ 19 NONAME
	_ZN10NmUiEngine16createNewMessageERK4NmId @ 20 NONAME
	_ZN10NmUiEngine16fetchMessagePartERK4NmIdS2_S2_S2_ @ 21 NONAME
	_ZN10NmUiEngine16mailboxListModelEv @ 22 NONAME
	_ZN10NmUiEngine16messageListModelERK4NmIdS2_ @ 23 NONAME
	_ZN10NmUiEngine16removeAttachmentERK9NmMessageRK4NmId @ 24 NONAME
	_ZN10NmUiEngine16standardFolderIdERK4NmId12NmFolderType @ 25 NONAME
	_ZN10NmUiEngine16staticMetaObjectE @ 26 NONAME DATA 16
	_ZN10NmUiEngine18createReplyMessageERK4NmIdS2_b @ 27 NONAME
	_ZN10NmUiEngine19getStaticMetaObjectEv @ 28 NONAME
	_ZN10NmUiEngine20cleanupSendOperationEv @ 29 NONAME
	_ZN10NmUiEngine20contentToMessagePartERK4NmIdS2_S2_R13NmMessagePart @ 30 NONAME
	_ZN10NmUiEngine20createForwardMessageERK4NmIdS2_ @ 31 NONAME
	_ZN10NmUiEngine23refreshMailboxListModelEv @ 32 NONAME
	_ZN10NmUiEngine23releaseMessageListModelERK4NmId @ 33 NONAME
	_ZN10NmUiEngine24handleCompletedOperationEv @ 34 NONAME
	_ZN10NmUiEngine28handleCompletedSendOperationEv @ 35 NONAME
	_ZN10NmUiEngine7messageERK4NmIdS2_S2_ @ 36 NONAME
	_ZN10NmUiEngine8goOnlineERK4NmId @ 37 NONAME
	_ZN10NmUiEngine8instanceEv @ 38 NONAME
	_ZN10NmUiEngine9goOfflineERK4NmId @ 39 NONAME
	_ZN10NmUiEngine9mInstanceE @ 40 NONAME DATA 4
	_ZN10NmUiEngine9syncStateERK4NmId @ 41 NONAME
	_ZN10NmUiEngineC1Ev @ 42 NONAME
	_ZN10NmUiEngineC2Ev @ 43 NONAME
	_ZN10NmUiEngineD0Ev @ 44 NONAME
	_ZN10NmUiEngineD1Ev @ 45 NONAME
	_ZN10NmUiEngineD2Ev @ 46 NONAME
	_ZN11NmOperation11qt_metacallEN11QMetaObject4CallEiPPv @ 47 NONAME
	_ZN11NmOperation11qt_metacastEPKc @ 48 NONAME
	_ZN11NmOperation15cancelOperationEv @ 49 NONAME
	_ZN11NmOperation16staticMetaObjectE @ 50 NONAME DATA 16
	_ZN11NmOperation17completeOperationEi @ 51 NONAME
	_ZN11NmOperation17doCancelOperationEv @ 52 NONAME
	_ZN11NmOperation17runAsyncOperationEv @ 53 NONAME
	_ZN11NmOperation18operationCancelledEv @ 54 NONAME
	_ZN11NmOperation18operationCompletedEi @ 55 NONAME
	_ZN11NmOperation19doCompleteOperationEv @ 56 NONAME
	_ZN11NmOperation19getStaticMetaObjectEv @ 57 NONAME
	_ZN11NmOperation23addPreliminaryOperationEPS_ @ 58 NONAME
	_ZN11NmOperation23updateOperationProgressEi @ 59 NONAME
	_ZN11NmOperation24operationProgressChangedEi @ 60 NONAME
	_ZN11NmOperation25doUpdateOperationProgressEv @ 61 NONAME
	_ZN11NmOperation34handlePreliminaryOperationFinishedEv @ 62 NONAME
	_ZN11NmOperationC2EP7QObject @ 63 NONAME
	_ZN11NmOperationD0Ev @ 64 NONAME
	_ZN11NmOperationD1Ev @ 65 NONAME
	_ZN11NmOperationD2Ev @ 66 NONAME
	_ZN13NmDataManager10folderByIdERK4NmIdS2_ @ 67 NONAME
	_ZN13NmDataManager11listFoldersE4NmIdR5QListIP8NmFolderE @ 68 NONAME
	_ZN13NmDataManager11mailboxByIdERK4NmId @ 69 NONAME
	_ZN13NmDataManager11qt_metacallEN11QMetaObject4CallEiPPv @ 70 NONAME
	_ZN13NmDataManager11qt_metacastEPKc @ 71 NONAME
	_ZN13NmDataManager12envelopeByIdERK4NmIdS2_S2_ @ 72 NONAME
	_ZN13NmDataManager12listMessagesERK4NmIdS2_R5QListIP17NmMessageEnvelopeE @ 73 NONAME
	_ZN13NmDataManager13listMailboxesER5QListIP9NmMailboxE @ 74 NONAME
	_ZN13NmDataManager14listMailboxIdsER5QListI4NmIdE @ 75 NONAME
	_ZN13NmDataManager16staticMetaObjectE @ 76 NONAME DATA 16
	_ZN13NmDataManager19getStandardFolderIdERK4NmId12NmFolderType @ 77 NONAME
	_ZN13NmDataManager19getStaticMetaObjectEv @ 78 NONAME
	_ZN13NmDataManager20contentToMessagePartERK4NmIdS2_S2_R13NmMessagePart @ 79 NONAME
	_ZN13NmDataManager6folderERK4NmIdS2_ @ 80 NONAME
	_ZN13NmDataManager7mailboxERK4NmId @ 81 NONAME
	_ZN13NmDataManager7messageERK4NmIdS2_S2_ @ 82 NONAME
	_ZN13NmDataManagerC1Ev @ 83 NONAME
	_ZN13NmDataManagerC2Ev @ 84 NONAME
	_ZN13NmDataManagerD0Ev @ 85 NONAME
	_ZN13NmDataManagerD1Ev @ 86 NONAME
	_ZN13NmDataManagerD2Ev @ 87 NONAME
	_ZN16NmFolderMetaData5setIdERK4NmId @ 88 NONAME
	_ZN16NmFolderMetaData7setNameERK7QString @ 89 NONAME
	_ZN16NmFolderMetaDataC1Ev @ 90 NONAME
	_ZN16NmFolderMetaDataC2Ev @ 91 NONAME
	_ZN16NmFolderMetaDataD0Ev @ 92 NONAME
	_ZN16NmFolderMetaDataD1Ev @ 93 NONAME
	_ZN16NmFolderMetaDataD2Ev @ 94 NONAME
	_ZN17NmFolderListModel7refreshER5QListIP8NmFolderE @ 95 NONAME
	_ZN17NmFolderListModelC1ER13NmDataManagerP7QObject @ 96 NONAME
	_ZN17NmFolderListModelC2ER13NmDataManagerP7QObject @ 97 NONAME
	_ZN17NmFolderListModelD0Ev @ 98 NONAME
	_ZN17NmFolderListModelD1Ev @ 99 NONAME
	_ZN17NmFolderListModelD2Ev @ 100 NONAME
	_ZN17NmMailboxMetaData5setIdERK4NmId @ 101 NONAME
	_ZN17NmMailboxMetaData7setNameERK7QString @ 102 NONAME
	_ZN17NmMailboxMetaData9setIconIdERK4NmId @ 103 NONAME
	_ZN17NmMailboxMetaDataC1Ev @ 104 NONAME
	_ZN17NmMailboxMetaDataC2Ev @ 105 NONAME
	_ZN17NmMailboxMetaDataD0Ev @ 106 NONAME
	_ZN17NmMailboxMetaDataD1Ev @ 107 NONAME
	_ZN17NmMailboxMetaDataD2Ev @ 108 NONAME
	_ZN18NmBaseClientPlugin10getActionsERK15NmActionRequestR5QListIP8NmActionE @ 109 NONAME
	_ZN18NmBaseClientPlugin10markAsReadEv @ 110 NONAME
	_ZN18NmBaseClientPlugin11forwardMailEv @ 111 NONAME
	_ZN18NmBaseClientPlugin11openMessageEv @ 112 NONAME
	_ZN18NmBaseClientPlugin11qt_metacallEN11QMetaObject4CallEiPPv @ 113 NONAME
	_ZN18NmBaseClientPlugin11qt_metacastEPKc @ 114 NONAME
	_ZN18NmBaseClientPlugin12markAsUnreadEv @ 115 NONAME
	_ZN18NmBaseClientPlugin12replyAllMailEv @ 116 NONAME
	_ZN18NmBaseClientPlugin13createNewMailEv @ 117 NONAME
	_ZN18NmBaseClientPlugin13deleteMessageEv @ 118 NONAME
	_ZN18NmBaseClientPlugin13handleRequestE23NmActionResponseCommandRK15NmActionRequest @ 119 NONAME
	_ZN18NmBaseClientPlugin14setPriorityLowEv @ 120 NONAME
	_ZN18NmBaseClientPlugin15setPriorityHighEv @ 121 NONAME
	_ZN18NmBaseClientPlugin16staticMetaObjectE @ 122 NONAME DATA 16
	_ZN18NmBaseClientPlugin17setPriorityNormalEv @ 123 NONAME
	_ZN18NmBaseClientPlugin18mailboxListChangedERK4NmIdN10NmSettings16MailboxEventTypeE @ 124 NONAME
	_ZN18NmBaseClientPlugin19getStaticMetaObjectEv @ 125 NONAME
	_ZN18NmBaseClientPlugin22mailboxPropertyChangedERK4NmId8QVariantS3_ @ 126 NONAME
	_ZN18NmBaseClientPlugin22updateEnvelopePropertyE20NmEnvelopeProperties @ 127 NONAME
	_ZN18NmBaseClientPlugin24createEditorViewCommandsERK15NmActionRequestR5QListIP8NmActionE @ 128 NONAME
	_ZN18NmBaseClientPlugin24createViewerViewCommandsERK15NmActionRequestR5QListIP8NmActionE @ 129 NONAME
	_ZN18NmBaseClientPlugin25createMessageListCommandsERK15NmActionRequestR5QListIP8NmActionE @ 130 NONAME
	_ZN18NmBaseClientPlugin26createNewMailViewerToolBarEv @ 131 NONAME
	_ZN18NmBaseClientPlugin27deleteMessageFromViewerViewEv @ 132 NONAME
	_ZN18NmBaseClientPlugin6attachEv @ 133 NONAME
	_ZN18NmBaseClientPlugin7refreshEv @ 134 NONAME
	_ZN18NmBaseClientPlugin8goOnlineERK4NmId @ 135 NONAME
	_ZN18NmBaseClientPlugin8sendMailEv @ 136 NONAME
	_ZN18NmBaseClientPlugin8settingsEv @ 137 NONAME
	_ZN18NmBaseClientPlugin9goOfflineERK4NmId @ 138 NONAME
	_ZN18NmBaseClientPlugin9replyMailEv @ 139 NONAME
	_ZN18NmBaseClientPluginC2Ev @ 140 NONAME
	_ZN18NmBaseClientPluginD0Ev @ 141 NONAME
	_ZN18NmBaseClientPluginD1Ev @ 142 NONAME
	_ZN18NmBaseClientPluginD2Ev @ 143 NONAME
	_ZN18NmMailboxListModel11qt_metacallEN11QMetaObject4CallEiPPv @ 144 NONAME
	_ZN18NmMailboxListModel11qt_metacastEPKc @ 145 NONAME
	_ZN18NmMailboxListModel16refreshModelItemERK4NmIdb @ 146 NONAME
	_ZN18NmMailboxListModel16staticMetaObjectE @ 147 NONAME DATA 16
	_ZN18NmMailboxListModel17createMailboxItemEPK9NmMailbox @ 148 NONAME
	_ZN18NmMailboxListModel18handleMailboxEventE14NmMailboxEventRK5QListI4NmIdE @ 149 NONAME
	_ZN18NmMailboxListModel19getStaticMetaObjectEv @ 150 NONAME
	_ZN18NmMailboxListModel7refreshER5QListIP9NmMailboxE @ 151 NONAME
	_ZN18NmMailboxListModelC1ER13NmDataManagerP7QObject @ 152 NONAME
	_ZN18NmMailboxListModelC2ER13NmDataManagerP7QObject @ 153 NONAME
	_ZN18NmMailboxListModelD0Ev @ 154 NONAME
	_ZN18NmMailboxListModelD1Ev @ 155 NONAME
	_ZN18NmMailboxListModelD2Ev @ 156 NONAME
	_ZN18NmMessageListModel10removeItemEiR22NmMessageListModelItem @ 157 NONAME
	_ZN18NmMessageListModel11qt_metacallEN11QMetaObject4CallEiPPv @ 158 NONAME
	_ZN18NmMessageListModel11qt_metacastEPKc @ 159 NONAME
	_ZN18NmMessageListModel11setDividersEb @ 160 NONAME
	_ZN18NmMessageListModel11setNewParamEP14NmUiStartParam @ 161 NONAME
	_ZN18NmMessageListModel13itemFromModelERK4NmId @ 162 NONAME
	_ZN18NmMessageListModel13removeMessageERK4NmId @ 163 NONAME
	_ZN18NmMessageListModel14dividersActiveEv @ 164 NONAME
	_ZN18NmMessageListModel14updateEnvelopeE20NmEnvelopePropertiesRK4NmId @ 165 NONAME
	_ZN18NmMessageListModel16currentMailboxIdEv @ 166 NONAME
	_ZN18NmMessageListModel16staticMetaObjectE @ 167 NONAME DATA 16
	_ZN18NmMessageListModel17createMessageItemEP17NmMessageEnvelope @ 168 NONAME
	_ZN18NmMessageListModel18handleMessageEventE14NmMessageEventRK4NmIdRK5QListIS1_E @ 169 NONAME
	_ZN18NmMessageListModel19getStaticMetaObjectEv @ 170 NONAME
	_ZN18NmMessageListModel21dividerInsertionIndexEi @ 171 NONAME
	_ZN18NmMessageListModel21setEnvelopePropertiesE20NmEnvelopePropertiesRK5QListI4NmIdE @ 172 NONAME
	_ZN18NmMessageListModel21updateMessageEnvelopeERK4NmIdS2_S2_ @ 173 NONAME
	_ZN18NmMessageListModel22createTitleDividerItemEP17NmMessageEnvelope @ 174 NONAME
	_ZN18NmMessageListModel22insertDividerIntoModelEP17NmMessageEnvelopei @ 175 NONAME
	_ZN18NmMessageListModel22insertMessageIntoModelEP17NmMessageEnvelopeib @ 176 NONAME
	_ZN18NmMessageListModel22removeMessageFromModelERK4NmId @ 177 NONAME
	_ZN18NmMessageListModel25insertNewMessageIntoModelERK4NmIdS2_S2_ @ 178 NONAME
	_ZN18NmMessageListModel7changedERK17NmMessageEnvelopeS2_ @ 179 NONAME
	_ZN18NmMessageListModel7refreshE4NmIdS0_RK5QListIP17NmMessageEnvelopeE @ 180 NONAME
	_ZN18NmMessageListModelC1ER13NmDataManagerP7QObject @ 181 NONAME
	_ZN18NmMessageListModelC2ER13NmDataManagerP7QObject @ 182 NONAME
	_ZN18NmMessageListModelD0Ev @ 183 NONAME
	_ZN18NmMessageListModelD1Ev @ 184 NONAME
	_ZN18NmMessageListModelD2Ev @ 185 NONAME
	_ZN19NmDataPluginFactory10loadPluginERK4QDirRK7QString @ 186 NONAME
	_ZN19NmDataPluginFactory12mPluginArrayE @ 187 NONAME DATA 4
	_ZN19NmDataPluginFactory14pluginInstanceE4NmId @ 188 NONAME
	_ZN19NmDataPluginFactory15mReferenceCountE @ 189 NONAME DATA 4
	_ZN19NmDataPluginFactory15pluginInstancesEv @ 190 NONAME
	_ZN19NmDataPluginFactory15releaseInstanceERPS_ @ 191 NONAME
	_ZN19NmDataPluginFactory17interfaceInstanceE4NmId @ 192 NONAME
	_ZN19NmDataPluginFactory17interfaceInstanceEP7QObject @ 193 NONAME
	_ZN19NmDataPluginFactory18mPluginLoaderArrayE @ 194 NONAME DATA 4
	_ZN19NmDataPluginFactory8instanceEv @ 195 NONAME
	_ZN19NmDataPluginFactory9mInstanceE @ 196 NONAME DATA 4
	_ZN19NmDataPluginFactoryC1Ev @ 197 NONAME
	_ZN19NmDataPluginFactoryC2Ev @ 198 NONAME
	_ZN19NmDataPluginFactoryD0Ev @ 199 NONAME
	_ZN19NmDataPluginFactoryD1Ev @ 200 NONAME
	_ZN19NmDataPluginFactoryD2Ev @ 201 NONAME
	_ZN22NmMessageListModelItem11envelopePtrEv @ 202 NONAME
	_ZN22NmMessageListModelItem11setEnvelopeEP17NmMessageEnvelope @ 203 NONAME
	_ZN22NmMessageListModelItem11setEnvelopeERK17NmMessageEnvelope @ 204 NONAME
	_ZN22NmMessageListModelItem11setExpandedEb @ 205 NONAME
	_ZN22NmMessageListModelItem11setItemTypeENS_17NmMessageItemTypeE @ 206 NONAME
	_ZN22NmMessageListModelItem15setTitleDividerERK7QString @ 207 NONAME
	_ZN22NmMessageListModelItem19callEmitDataChangedEv @ 208 NONAME
	_ZN22NmMessageListModelItemC1Ev @ 209 NONAME
	_ZN22NmMessageListModelItemC2Ev @ 210 NONAME
	_ZN22NmMessageListModelItemD0Ev @ 211 NONAME
	_ZN22NmMessageListModelItemD1Ev @ 212 NONAME
	_ZN22NmMessageListModelItemD2Ev @ 213 NONAME
	_ZN25NmAddAttachmentsOperation11qt_metacallEN11QMetaObject4CallEiPPv @ 214 NONAME
	_ZN25NmAddAttachmentsOperation11qt_metacastEPKc @ 215 NONAME
	_ZN25NmAddAttachmentsOperation16staticMetaObjectE @ 216 NONAME DATA 16
	_ZN25NmAddAttachmentsOperation19getStaticMetaObjectEv @ 217 NONAME
	_ZN25NmAddAttachmentsOperation21completeOperationPartERK7QStringRK4NmIdi @ 218 NONAME
	_ZN25NmAddAttachmentsOperation22operationPartCompletedERK7QStringRK4NmIdi @ 219 NONAME
	_ZN25NmAddAttachmentsOperationC2EP7QObject @ 220 NONAME
	_ZN25NmAddAttachmentsOperationD0Ev @ 221 NONAME
	_ZN25NmAddAttachmentsOperationD1Ev @ 222 NONAME
	_ZN25NmAddAttachmentsOperationD2Ev @ 223 NONAME
	_ZN7NmIcons7getIconENS_4IconE @ 224 NONAME
	_ZN7NmIcons9freeIconsEv @ 225 NONAME
	_ZNK10NmUiEngine10metaObjectEv @ 226 NONAME
	_ZNK10NmUiEngine16isSendingMessageEv @ 227 NONAME
	_ZNK10NmUiEngine16messageBeingSentEv @ 228 NONAME
	_ZNK11NmOperation10metaObjectEv @ 229 NONAME
	_ZNK11NmOperation9isRunningEv @ 230 NONAME
	_ZNK13NmDataManager10metaObjectEv @ 231 NONAME
	_ZNK16NmFolderMetaData2idEv @ 232 NONAME
	_ZNK16NmFolderMetaData4nameEv @ 233 NONAME
	_ZNK17NmFolderListModel11columnCountERK11QModelIndex @ 234 NONAME
	_ZNK17NmFolderListModel4dataERK11QModelIndexi @ 235 NONAME
	_ZNK17NmFolderListModel6parentERK11QModelIndex @ 236 NONAME
	_ZNK17NmFolderListModel8rowCountERK11QModelIndex @ 237 NONAME
	_ZNK17NmMailboxMetaData2idEv @ 238 NONAME
	_ZNK17NmMailboxMetaData4nameEv @ 239 NONAME
	_ZNK17NmMailboxMetaData6IconIdEv @ 240 NONAME
	_ZNK18NmBaseClientPlugin10metaObjectEv @ 241 NONAME
	_ZNK18NmMailboxListModel10metaObjectEv @ 242 NONAME
	_ZNK18NmMailboxListModel4dataERK11QModelIndexi @ 243 NONAME
	_ZNK18NmMessageListModel10metaObjectEv @ 244 NONAME
	_ZNK18NmMessageListModel17getInsertionIndexERK17NmMessageEnvelope @ 245 NONAME
	_ZNK18NmMessageListModel30messagesBelongUnderSameDividerEPK17NmMessageEnvelopeS2_ @ 246 NONAME
	_ZNK18NmMessageListModel4dataERK11QModelIndexi @ 247 NONAME
	_ZNK22NmMessageListModelItem12titleDividerEv @ 248 NONAME
	_ZNK22NmMessageListModelItem8envelopeEv @ 249 NONAME
	_ZNK22NmMessageListModelItem8expandedEv @ 250 NONAME
	_ZNK22NmMessageListModelItem8itemTypeEv @ 251 NONAME
	_ZNK25NmAddAttachmentsOperation10metaObjectEv @ 252 NONAME
	_ZTI10NmUiEngine @ 253 NONAME
	_ZTI11NmOperation @ 254 NONAME
	_ZTI13NmDataManager @ 255 NONAME
	_ZTI16NmFolderMetaData @ 256 NONAME
	_ZTI17NmFolderListModel @ 257 NONAME
	_ZTI17NmMailboxMetaData @ 258 NONAME
	_ZTI18NmBaseClientPlugin @ 259 NONAME
	_ZTI18NmMailboxListModel @ 260 NONAME
	_ZTI18NmMessageListModel @ 261 NONAME
	_ZTI19NmDataPluginFactory @ 262 NONAME
	_ZTI22NmMessageListModelItem @ 263 NONAME
	_ZTI25NmAddAttachmentsOperation @ 264 NONAME
	_ZTV10NmUiEngine @ 265 NONAME
	_ZTV11NmOperation @ 266 NONAME
	_ZTV13NmDataManager @ 267 NONAME
	_ZTV16NmFolderMetaData @ 268 NONAME
	_ZTV17NmFolderListModel @ 269 NONAME
	_ZTV17NmMailboxMetaData @ 270 NONAME
	_ZTV18NmBaseClientPlugin @ 271 NONAME
	_ZTV18NmMailboxListModel @ 272 NONAME
	_ZTV18NmMessageListModel @ 273 NONAME
	_ZTV19NmDataPluginFactory @ 274 NONAME
	_ZTV22NmMessageListModelItem @ 275 NONAME
	_ZTV25NmAddAttachmentsOperation @ 276 NONAME
	_ZThn8_N18NmBaseClientPlugin10getActionsERK15NmActionRequestR5QListIP8NmActionE @ 277 NONAME
	_ZThn8_N18NmBaseClientPluginD0Ev @ 278 NONAME
	_ZThn8_N18NmBaseClientPluginD1Ev @ 279 NONAME
	_ZN10NmUiEngine22sendOperationCompletedEv @ 280 NONAME
	_ZN18NmBaseClientPlugin14openAttachmentEv @ 281 NONAME
	_ZN18NmBaseClientPlugin16removeAttachmentEv @ 282 NONAME
	_ZN10NmUiEngine18operationCompletedERK26NmOperationCompletionEvent @ 283 NONAME
	_ZN10NmUiEngine20handleSyncStateEventE11NmSyncStateRK26NmOperationCompletionEvent @ 284 NONAME

