EXPORTS
	?LoadResourceL@ESMRHelper@@SAHABVTDesC16@@0@Z @ 1 NONAME ; int ESMRHelper::LoadResourceL(class TDesC16 const &, class TDesC16 const &)
	?IsModifyingEntryL@ESMREntryHelper@@SAHABVCCalEntry@@@Z @ 2 NONAME ; int ESMREntryHelper::IsModifyingEntryL(class CCalEntry const &)
	?IsCancelledL@ESMREntryHelper@@SAHABVCCalEntry@@AAVCMRMailboxUtils@@@Z @ 3 NONAME ; int ESMREntryHelper::IsCancelledL(class CCalEntry const &, class CMRMailboxUtils &)
	?CopyUserLC@ESMRHelper@@SAPAVCCalUser@@AAV2@@Z @ 4 NONAME ; class CCalUser * ESMRHelper::CopyUserLC(class CCalUser &)
	?IsLatestSavedSentL@ESMREntryHelper@@SAHABVCCalEntry@@@Z @ 5 NONAME ; int ESMREntryHelper::IsLatestSavedSentL(class CCalEntry const &)
	?PopulateChildFromParentL@ESMRHelper@@SAXAAVCCalEntry@@ABV2@@Z @ 6 NONAME ; void ESMRHelper::PopulateChildFromParentL(class CCalEntry &, class CCalEntry const &)
	?CopyFieldsL@ESMRHelper@@SAXABVCCalEntry@@AAV2@W4TCopyFields@1@@Z @ 7 NONAME ; void ESMRHelper::CopyFieldsL(class CCalEntry const &, class CCalEntry &, enum ESMRHelper::TCopyFields)
	?CopyAttendeeL@ESMRHelper@@SAPAVCCalAttendee@@AAV2@@Z @ 8 NONAME ; class CCalAttendee * ESMRHelper::CopyAttendeeL(class CCalAttendee &)
	?GetCorrectDllDriveL@ESMRHelper@@SAXAAV?$TBuf@$0BAA@@@@Z @ 9 NONAME ; void ESMRHelper::GetCorrectDllDriveL(class TBuf<256> &)
	?CopyUserL@ESMRHelper@@SAPAVCCalUser@@AAV2@@Z @ 10 NONAME ; class CCalUser * ESMRHelper::CopyUserL(class CCalUser &)
	?NewL@CESMRFeatureSettings@@SAPAV1@XZ @ 11 NONAME ; class CESMRFeatureSettings * CESMRFeatureSettings::NewL(void)
	?FeatureSupported@CESMRFeatureSettings@@QBEHI@Z @ 12 NONAME ; int CESMRFeatureSettings::FeatureSupported(unsigned int) const
	?EqualAttendeeL@ESMREntryHelper@@SAPAVCCalAttendee@@ABV2@ABVCCalEntry@@@Z @ 13 NONAME ; class CCalAttendee * ESMREntryHelper::EqualAttendeeL(class CCalAttendee const &, class CCalEntry const &)
	?SendingMailBoxL@ESMREntryHelper@@SAJABVTAgnEntryUiInParams@MAgnEntryUi@@AAVCMRMailboxUtils@@@Z @ 14 NONAME ; long ESMREntryHelper::SendingMailBoxL(class MAgnEntryUi::TAgnEntryUiInParams const &, class CMRMailboxUtils &)
	?LocateResourceFile@ESMRHelper@@SAHABVTDesC16@@0AAV?$TBuf@$0BAA@@@PAVRFs@@@Z @ 15 NONAME ; int ESMRHelper::LocateResourceFile(class TDesC16 const &, class TDesC16 const &, class TBuf<256> &, class RFs *)
	?CopyAttendeeLC@ESMRHelper@@SAPAVCCalAttendee@@AAV2@@Z @ 16 NONAME ; class CCalAttendee * ESMRHelper::CopyAttendeeLC(class CCalAttendee &)
	?SpansManyDaysL@ESMREntryHelper@@SAHABVTCalTime@@0@Z @ 17 NONAME ; int ESMREntryHelper::SpansManyDaysL(class TCalTime const &, class TCalTime const &)
	?CreateAndAppendPrivateDirToFileName@ESMRHelper@@SAHAAV?$TBuf@$0BAA@@@@Z @ 18 NONAME ; int ESMRHelper::CreateAndAppendPrivateDirToFileName(class TBuf<256> &)
	?CorrespondingSmtpServiceL@ESMRHelper@@SAJJAAVCMsvSession@@@Z @ 19 NONAME ; long ESMRHelper::CorrespondingSmtpServiceL(long, class CMsvSession &)
	?IsRepeatingMeetingL@ESMREntryHelper@@SAHABVCCalEntry@@@Z @ 20 NONAME ; int ESMREntryHelper::IsRepeatingMeetingL(class CCalEntry const &)
	?CopyEntryL@ESMRHelper@@SAPAVCCalEntry@@ABV2@W4TMethod@2@W4TCopyFields@1@@Z @ 21 NONAME ; class CCalEntry * ESMRHelper::CopyEntryL(class CCalEntry const &, enum CCalEntry::TMethod, enum ESMRHelper::TCopyFields)
	?NewLC@CESMRFeatureSettings@@SAPAV1@XZ @ 22 NONAME ; class CESMRFeatureSettings * CESMRFeatureSettings::NewLC(void)
	?CopyEntryLC@ESMRHelper@@SAPAVCCalEntry@@ABV2@W4TMethod@2@W4TCopyFields@1@@Z @ 23 NONAME ; class CCalEntry * ESMRHelper::CopyEntryLC(class CCalEntry const &, enum CCalEntry::TMethod, enum ESMRHelper::TCopyFields)
	?AddressWithoutMailtoPrefix@ESMRHelper@@SA?AVTPtrC16@@ABVTDesC16@@@Z @ 24 NONAME ; class TPtrC16 ESMRHelper::AddressWithoutMailtoPrefix(class TDesC16 const &)
	?OccursInPastL@ESMREntryHelper@@SAHABVCCalEntry@@@Z @ 25 NONAME ; int ESMREntryHelper::OccursInPastL(class CCalEntry const &)
	?PhoneOwnerAddrL@ESMREntryHelper@@SAABVTDesC16@@ABVCCalEntry@@AAVCMRMailboxUtils@@@Z @ 26 NONAME ; class TDesC16 const & ESMREntryHelper::PhoneOwnerAddrL(class CCalEntry const &, class CMRMailboxUtils &)

