EXPORTS
	??0RMsgStoreSearchCriteria@@QAE@XZ @ 1 NONAME ; RMsgStoreSearchCriteria::RMsgStoreSearchCriteria(void)
	??1CMsgStoreAddress@@UAE@XZ @ 2 NONAME ; CMsgStoreAddress::~CMsgStoreAddress(void)
	?AbandonL@CMsgStoreMessage@@QAEXXZ @ 3 NONAME ; void CMsgStoreMessage::AbandonL(void)
	?AccountsL@CMsgStore@@QAEXAAV?$RPointerArray@VCMsgStoreAccount@@@@@Z @ 4 NONAME ; void CMsgStore::AccountsL(class RPointerArray<class CMsgStoreAccount> &)
	?AddChildMessageL@CMsgStoreMessagePart@@QAEPAVCMsgStoreMessage@@AAVCMsgStorePropertyContainer@@@Z @ 5 NONAME ; class CMsgStoreMessage * CMsgStoreMessagePart::AddChildMessageL(class CMsgStorePropertyContainer &)
	?AddChildPartL@CMsgStoreMessagePart@@QAEPAV1@ABVCMsgStorePropertyContainer@@AAVRFile@@@Z @ 6 NONAME ; class CMsgStoreMessagePart * CMsgStoreMessagePart::AddChildPartL(class CMsgStorePropertyContainer const &, class RFile &)
	?AddChildPartL@CMsgStoreMessagePart@@QAEPAV1@ABVCMsgStorePropertyContainer@@ABVTDesC16@@@Z @ 7 NONAME ; class CMsgStoreMessagePart * CMsgStoreMessagePart::AddChildPartL(class CMsgStorePropertyContainer const &, class TDesC16 const &)
	?AddFolderId@RMsgStoreSearchCriteria@@QAEXI@Z @ 8 NONAME ; void RMsgStoreSearchCriteria::AddFolderId(unsigned int)
	?AddMruAddressesL@CMsgStoreMailBox@@QAEXAAV?$RPointerArray@VCMsgStoreAddress@@@@@Z @ 9 NONAME ; void CMsgStoreMailBox::AddMruAddressesL(class RPointerArray<class CMsgStoreAddress> &)
	?AddObserverL@CMsgStore@@QAEXPAVMMsgStoreObserver@@@Z @ 10 NONAME ; void CMsgStore::AddObserverL(class MMsgStoreObserver *)
	?AddObserverL@CMsgStoreMailBox@@QAEXPAVMMsgStoreMailBoxObserver@@@Z @ 11 NONAME ; void CMsgStoreMailBox::AddObserverL(class MMsgStoreMailBoxObserver *)
	?AddOrUpdatePropertyL@CMsgStorePropertyContainer@@QAEIABVTDesC8@@0@Z @ 12 NONAME ; unsigned int CMsgStorePropertyContainer::AddOrUpdatePropertyL(class TDesC8 const &, class TDesC8 const &)
	?AddOrUpdatePropertyL@CMsgStorePropertyContainer@@QAEIABVTDesC8@@ABV1@@Z @ 13 NONAME ; unsigned int CMsgStorePropertyContainer::AddOrUpdatePropertyL(class TDesC8 const &, class CMsgStorePropertyContainer const &)
	?AddOrUpdatePropertyL@CMsgStorePropertyContainer@@QAEIABVTDesC8@@ABVRMsgStoreAddress@@@Z @ 14 NONAME ; unsigned int CMsgStorePropertyContainer::AddOrUpdatePropertyL(class TDesC8 const &, class RMsgStoreAddress const &)
	?AddOrUpdatePropertyL@CMsgStorePropertyContainer@@QAEIABVTDesC8@@ABVTDesC16@@@Z @ 15 NONAME ; unsigned int CMsgStorePropertyContainer::AddOrUpdatePropertyL(class TDesC8 const &, class TDesC16 const &)
	?AddOrUpdatePropertyL@CMsgStorePropertyContainer@@QAEIABVTDesC8@@ABVTTime@@@Z @ 16 NONAME ; unsigned int CMsgStorePropertyContainer::AddOrUpdatePropertyL(class TDesC8 const &, class TTime const &)
	?AddOrUpdatePropertyL@CMsgStorePropertyContainer@@QAEIABVTDesC8@@H@Z @ 17 NONAME ; unsigned int CMsgStorePropertyContainer::AddOrUpdatePropertyL(class TDesC8 const &, int)
	?AddOrUpdatePropertyL@CMsgStorePropertyContainer@@QAEIABVTDesC8@@K@Z @ 18 NONAME ; unsigned int CMsgStorePropertyContainer::AddOrUpdatePropertyL(class TDesC8 const &, unsigned long)
	?AddPropertyL@CMsgStorePropertyContainer@@QAEIABVTDesC8@@0@Z @ 19 NONAME ; unsigned int CMsgStorePropertyContainer::AddPropertyL(class TDesC8 const &, class TDesC8 const &)
	?AddPropertyL@CMsgStorePropertyContainer@@QAEIABVTDesC8@@ABV1@@Z @ 20 NONAME ; unsigned int CMsgStorePropertyContainer::AddPropertyL(class TDesC8 const &, class CMsgStorePropertyContainer const &)
	?AddPropertyL@CMsgStorePropertyContainer@@QAEIABVTDesC8@@ABVRMsgStoreAddress@@@Z @ 21 NONAME ; unsigned int CMsgStorePropertyContainer::AddPropertyL(class TDesC8 const &, class RMsgStoreAddress const &)
	?AddPropertyL@CMsgStorePropertyContainer@@QAEIABVTDesC8@@ABVTDesC16@@@Z @ 22 NONAME ; unsigned int CMsgStorePropertyContainer::AddPropertyL(class TDesC8 const &, class TDesC16 const &)
	?AddPropertyL@CMsgStorePropertyContainer@@QAEIABVTDesC8@@ABVTTime@@@Z @ 23 NONAME ; unsigned int CMsgStorePropertyContainer::AddPropertyL(class TDesC8 const &, class TTime const &)
	?AddPropertyL@CMsgStorePropertyContainer@@QAEIABVTDesC8@@H@Z @ 24 NONAME ; unsigned int CMsgStorePropertyContainer::AddPropertyL(class TDesC8 const &, int)
	?AddPropertyL@CMsgStorePropertyContainer@@QAEIABVTDesC8@@K@Z @ 25 NONAME ; unsigned int CMsgStorePropertyContainer::AddPropertyL(class TDesC8 const &, unsigned long)
	?AddResultPropertyL@RMsgStoreSearchCriteria@@QAEXABVTDesC8@@@Z @ 26 NONAME ; void RMsgStoreSearchCriteria::AddResultPropertyL(class TDesC8 const &)
	?AddResultPropertyL@RMsgStoreSortCriteria@@QAEXABVTDesC8@@@Z @ 27 NONAME ; void RMsgStoreSortCriteria::AddResultPropertyL(class TDesC8 const &)
	?AddSearchStringL@RMsgStoreSearchCriteria@@QAEXABVTDesC16@@@Z @ 28 NONAME ; void RMsgStoreSearchCriteria::AddSearchStringL(class TDesC16 const &)
	?AppendToContentL@CMsgStorePropertyContainerWithContent@@QAEXABVTDesC8@@@Z @ 29 NONAME ; void CMsgStorePropertyContainerWithContent::AppendToContentL(class TDesC8 const &)
	?AuthenticateL@CMsgStore@@QAEHABVTDesC16@@@Z @ 30 NONAME ; int CMsgStore::AuthenticateL(class TDesC16 const &)
	?AuthenticatedL@CMsgStore@@QAEHXZ @ 31 NONAME ; int CMsgStore::AuthenticatedL(void)
	?CancelSearch@CMsgStoreMailBox@@QAEXXZ @ 32 NONAME ; void CMsgStoreMailBox::CancelSearch(void)
	?ChangePasswordL@CMsgStore@@QAEHABVTDesC16@@0@Z @ 33 NONAME ; int CMsgStore::ChangePasswordL(class TDesC16 const &, class TDesC16 const &)
	?ChildPartL@CMsgStoreMessagePart@@QAEPAV1@IH@Z @ 34 NONAME ; class CMsgStoreMessagePart * CMsgStoreMessagePart::ChildPartL(unsigned int, int)
	?ChildPartsL@CMsgStoreMessagePart@@QAEXAAV?$RPointerArray@VCMsgStoreMessagePart@@@@@Z @ 35 NONAME ; void CMsgStoreMessagePart::ChildPartsL(class RPointerArray<class CMsgStoreMessagePart> &)
	?ClearAuthenticationL@CMsgStore@@QAEXXZ @ 36 NONAME ; void CMsgStore::ClearAuthenticationL(void)
	?ClearSearchResultCache@CMsgStoreMailBox@@QAEXXZ @ 37 NONAME ; void CMsgStoreMailBox::ClearSearchResultCache(void)
	?Close@RMsgStoreAddress@@QAEXXZ @ 38 NONAME ; void RMsgStoreAddress::Close(void)
	?Close@RMsgStoreSearchCriteria@@QAEXXZ @ 39 NONAME ; void RMsgStoreSearchCriteria::Close(void)
	?Close@RMsgStoreSortCriteria@@QAEXXZ @ 40 NONAME ; void RMsgStoreSortCriteria::Close(void)
	?CommitL@CMsgStoreMessage@@QAEXXZ @ 41 NONAME ; void CMsgStoreMessage::CommitL(void)
	?ContainerTypeById@CMsgStoreMailBox@@QAE?AW4TMsgStoreContainerType@@I@Z @ 42 NONAME ; enum TMsgStoreContainerType CMsgStoreMailBox::ContainerTypeById(unsigned int)
	?ContentLengthL@CMsgStorePropertyContainerWithContent@@QAEIXZ @ 43 NONAME ; unsigned int CMsgStorePropertyContainerWithContent::ContentLengthL(void)
	?CopyChildPartL@CMsgStoreMessagePart@@QAEIII@Z @ 44 NONAME ; unsigned int CMsgStoreMessagePart::CopyChildPartL(unsigned int, unsigned int)
	?CopyMessageL@CMsgStoreMailBox@@QAEIIII@Z @ 45 NONAME ; unsigned int CMsgStoreMailBox::CopyMessageL(unsigned int, unsigned int, unsigned int)
	?CreateAccountL@CMsgStore@@QAEPAVCMsgStoreMailBox@@ABVCMsgStoreAccount@@PBVCMsgStorePropertyContainer@@@Z @ 46 NONAME ; class CMsgStoreMailBox * CMsgStore::CreateAccountL(class CMsgStoreAccount const &, class CMsgStorePropertyContainer const *)
	?CreateFolderL@CMsgStoreMailBox@@QAEIIAAVCMsgStorePropertyContainer@@H@Z @ 47 NONAME ; unsigned int CMsgStoreMailBox::CreateFolderL(unsigned int, class CMsgStorePropertyContainer &, int)
	?CreateMessageL@CMsgStoreMailBox@@QAEPAVCMsgStoreMessage@@IABVCMsgStorePropertyContainer@@@Z @ 48 NONAME ; class CMsgStoreMessage * CMsgStoreMailBox::CreateMessageL(unsigned int, class CMsgStorePropertyContainer const &)
	?DefaultMailboxL@CMsgStore@@QAEIXZ @ 49 NONAME ; unsigned int CMsgStore::DefaultMailboxL(void)
	?DeleteAccountL@CMsgStore@@QAEXABVCMsgStoreAccount@@@Z @ 50 NONAME ; void CMsgStore::DeleteAccountL(class CMsgStoreAccount const &)
	?DeleteFolderL@CMsgStoreMailBox@@QAEXI@Z @ 51 NONAME ; void CMsgStoreMailBox::DeleteFolderL(unsigned int)
	?DeleteMessageL@CMsgStoreMailBox@@QAEXII@Z @ 52 NONAME ; void CMsgStoreMailBox::DeleteMessageL(unsigned int, unsigned int)
	?DisableEncryptionL@CMsgStore@@QAEXXZ @ 53 NONAME ; void CMsgStore::DisableEncryptionL(void)
	?DisplayName@CMsgStoreAddress@@QAEABVTDesC16@@XZ @ 54 NONAME ; class TDesC16 const & CMsgStoreAddress::DisplayName(void)
	?EmailAddress@CMsgStoreAddress@@QAEABVTDesC16@@XZ @ 55 NONAME ; class TDesC16 const & CMsgStoreAddress::EmailAddress(void)
	?EnableEncryptionL@CMsgStore@@QAEXXZ @ 56 NONAME ; void CMsgStore::EnableEncryptionL(void)
	?FetchContentToBufferL@CMsgStorePropertyContainerWithContent@@QAEXAAVTDes8@@I@Z @ 57 NONAME ; void CMsgStorePropertyContainerWithContent::FetchContentToBufferL(class TDes8 &, unsigned int)
	?FetchContentToFileL@CMsgStorePropertyContainerWithContent@@QAEXABVTDesC16@@@Z @ 58 NONAME ; void CMsgStorePropertyContainerWithContent::FetchContentToFileL(class TDesC16 const &)
	?FetchMessageL@CMsgStoreMailBox@@QAEPAVCMsgStoreMessage@@II@Z @ 59 NONAME ; class CMsgStoreMessage * CMsgStoreMailBox::FetchMessageL(unsigned int, unsigned int)
	?FetchPropertiesL@CMsgStoreMailBox@@QAEPAVCMsgStoreWritablePropertyContainer@@I@Z @ 60 NONAME ; class CMsgStoreWritablePropertyContainer * CMsgStoreMailBox::FetchPropertiesL(unsigned int)
	?FetchPropertiesL@CMsgStoreMailBox@@QAEXABV?$RArray@I@@ABV?$RPointerArray@VTDesC8@@@@AAV?$RPointerArray@VCMsgStorePropertyContainer@@@@@Z @ 61 NONAME ; void CMsgStoreMailBox::FetchPropertiesL(class RArray<unsigned int> const &, class RPointerArray<class TDesC8> const &, class RPointerArray<class CMsgStorePropertyContainer> &)
	?FindProperty@CMsgStorePropertyContainer@@QBEHABVTDesC8@@AAII@Z @ 62 NONAME ; int CMsgStorePropertyContainer::FindProperty(class TDesC8 const &, unsigned int &, unsigned int) const
	?FolderL@CMsgStoreMailBox@@QAEPAVCMsgStoreFolder@@I@Z @ 63 NONAME ; class CMsgStoreFolder * CMsgStoreMailBox::FolderL(unsigned int)
	?FoldersL@CMsgStoreMailBox@@QAEXAAV?$RPointerArray@VCMsgStoreFolder@@@@@Z @ 64 NONAME ; void CMsgStoreMailBox::FoldersL(class RPointerArray<class CMsgStoreFolder> &)
	?FoldersL@CMsgStoreMailBox@@QAEXIAAV?$RPointerArray@VCMsgStoreFolder@@@@H@Z @ 65 NONAME ; void CMsgStoreMailBox::FoldersL(unsigned int, class RPointerArray<class CMsgStoreFolder> &, int)
	?GetRootFoldersL@MsgStoreFolderUtils@@SAXAAVCMsgStoreMailBox@@AAUTMsgStoreRootFolders@@@Z @ 66 NONAME ; void MsgStoreFolderUtils::GetRootFoldersL(class CMsgStoreMailBox &, struct TMsgStoreRootFolders &)
	?GroupCountL@CMsgStoreSortResultIterator@@QAEHAAV?$RArray@I@@@Z @ 67 NONAME ; int CMsgStoreSortResultIterator::GroupCountL(class RArray<unsigned int> &)
	?HasPasswordL@CMsgStore@@QAEHXZ @ 68 NONAME ; int CMsgStore::HasPasswordL(void)
	?Id@CMsgStorePropertyContainer@@QBEIXZ @ 69 NONAME ; unsigned int CMsgStorePropertyContainer::Id(void) const
	?IdsAndFlagsL@CMsgStoreSortResultIterator@@QAEXAAV?$RArray@VTMsgStoreIdAndFlag@@@@@Z @ 70 NONAME ; void CMsgStoreSortResultIterator::IdsAndFlagsL(class RArray<class TMsgStoreIdAndFlag> &)
	?IdsAndGroupCountL@CMsgStoreSortResultIterator@@QAEXAAV?$RArray@I@@0@Z @ 71 NONAME ; void CMsgStoreSortResultIterator::IdsAndGroupCountL(class RArray<unsigned int> &, class RArray<unsigned int> &)
	?IndexOfL@CMsgStoreSortResultIterator@@QAEHI@Z @ 72 NONAME ; int CMsgStoreSortResultIterator::IndexOfL(unsigned int)
	?InitializeRootFoldersL@MsgStoreFolderUtils@@SAXAAVCMsgStoreMailBox@@AAUTMsgStoreRootFolders@@@Z @ 73 NONAME ; void MsgStoreFolderUtils::InitializeRootFoldersL(class CMsgStoreMailBox &, struct TMsgStoreRootFolders &)
	?IsCorporateMailbox@CMsgStoreMailBox@@QAEHXZ @ 74 NONAME ; int CMsgStoreMailBox::IsCorporateMailbox(void)
	?IsEmbeddedMessageL@CMsgStoreMessagePart@@QAEHXZ @ 75 NONAME ; int CMsgStoreMessagePart::IsEmbeddedMessageL(void)
	?IsLocalL@CMsgStoreFolder@@QAEHXZ @ 76 NONAME ; int CMsgStoreFolder::IsLocalL(void)
	?MessageCountsL@CMsgStoreMailBox@@QAEXIAAI0@Z @ 77 NONAME ; void CMsgStoreMailBox::MessageCountsL(unsigned int, unsigned int &, unsigned int &)
	?MessageIdsL@CMsgStoreMailBox@@QAEXIAAV?$RArray@I@@@Z @ 78 NONAME ; void CMsgStoreMailBox::MessageIdsL(unsigned int, class RArray<unsigned int> &)
	?MessageIdsL@CMsgStoreSortResultIterator@@QAEXAAV?$RArray@I@@@Z @ 79 NONAME ; void CMsgStoreSortResultIterator::MessageIdsL(class RArray<unsigned int> &)
	?MoveFolderL@CMsgStoreMailBox@@QAEXIII@Z @ 80 NONAME ; void CMsgStoreMailBox::MoveFolderL(unsigned int, unsigned int, unsigned int)
	?MoveMessageL@CMsgStoreMailBox@@QAEXIII@Z @ 81 NONAME ; void CMsgStoreMailBox::MoveMessageL(unsigned int, unsigned int, unsigned int)
	?MruAddressesL@CMsgStoreMailBox@@QAEXAAV?$RPointerArray@VCMsgStoreAddress@@@@@Z @ 82 NONAME ; void CMsgStoreMailBox::MruAddressesL(class RPointerArray<class CMsgStoreAddress> &)
	?Name@CMsgStoreAccount@@QBEABVTDesC16@@XZ @ 83 NONAME ; class TDesC16 const & CMsgStoreAccount::Name(void) const
	?NewL@CMsgStore@@SAPAV1@H@Z @ 84 NONAME ; class CMsgStore * CMsgStore::NewL(int)
	?NewL@CMsgStoreAccount@@SAPAV1@JABVTDesC16@@@Z @ 85 NONAME ; class CMsgStoreAccount * CMsgStoreAccount::NewL(long, class TDesC16 const &)
	?NewL@CMsgStoreAddress@@SAPAV1@ABVTDesC16@@0@Z @ 86 NONAME ; class CMsgStoreAddress * CMsgStoreAddress::NewL(class TDesC16 const &, class TDesC16 const &)
	?NewL@CMsgStorePropertyContainer@@SAPAV1@XZ @ 87 NONAME ; class CMsgStorePropertyContainer * CMsgStorePropertyContainer::NewL(void)
	?NewLC@CMsgStoreAccount@@SAPAV1@JABVTDesC16@@@Z @ 88 NONAME ; class CMsgStoreAccount * CMsgStoreAccount::NewLC(long, class TDesC16 const &)
	?NextL@CMsgStoreSortResultIterator@@QAEHABVTDesC16@@IAAV?$RPointerArray@VCMsgStorePropertyContainer@@@@@Z @ 89 NONAME ; int CMsgStoreSortResultIterator::NextL(class TDesC16 const &, unsigned int, class RPointerArray<class CMsgStorePropertyContainer> &)
	?NextL@CMsgStoreSortResultIterator@@QAEHIIAAV?$RPointerArray@VCMsgStorePropertyContainer@@@@@Z @ 90 NONAME ; int CMsgStoreSortResultIterator::NextL(unsigned int, unsigned int, class RPointerArray<class CMsgStorePropertyContainer> &)
	?OpenAccountL@CMsgStore@@QAEPAVCMsgStoreMailBox@@ABVCMsgStoreAccount@@@Z @ 91 NONAME ; class CMsgStoreMailBox * CMsgStore::OpenAccountL(class CMsgStoreAccount const &)
	?OpenAccountL@CMsgStore@@QAEPAVCMsgStoreMailBox@@I@Z @ 92 NONAME ; class CMsgStoreMailBox * CMsgStore::OpenAccountL(unsigned int)
	?OpenOriginalContentFileL@CMsgStorePropertyContainerWithContent@@QAEXAAVRFile@@@Z @ 93 NONAME ; void CMsgStorePropertyContainerWithContent::OpenOriginalContentFileL(class RFile &)
	?Owner@CMsgStoreAccount@@QBEJXZ @ 94 NONAME ; long CMsgStoreAccount::Owner(void) const
	?ParentId@CMsgStorePropertyContainer@@QBEIXZ @ 95 NONAME ; unsigned int CMsgStorePropertyContainer::ParentId(void) const
	?PreviousL@CMsgStoreSortResultIterator@@QAEHABVTDesC16@@IAAV?$RPointerArray@VCMsgStorePropertyContainer@@@@@Z @ 96 NONAME ; int CMsgStoreSortResultIterator::PreviousL(class TDesC16 const &, unsigned int, class RPointerArray<class CMsgStorePropertyContainer> &)
	?PreviousL@CMsgStoreSortResultIterator@@QAEHIIAAV?$RPointerArray@VCMsgStorePropertyContainer@@@@@Z @ 97 NONAME ; int CMsgStoreSortResultIterator::PreviousL(unsigned int, unsigned int, class RPointerArray<class CMsgStorePropertyContainer> &)
	?PropertyCount@CMsgStorePropertyContainer@@QBEIXZ @ 98 NONAME ; unsigned int CMsgStorePropertyContainer::PropertyCount(void) const
	?PropertyNameL@CMsgStorePropertyContainer@@QBEABVTDesC8@@I@Z @ 99 NONAME ; class TDesC8 const & CMsgStorePropertyContainer::PropertyNameL(unsigned int) const
	?PropertyTypeL@CMsgStorePropertyContainer@@QBE?AW4TMsgStorePropertyValueType@@I@Z @ 100 NONAME ; enum TMsgStorePropertyValueType CMsgStorePropertyContainer::PropertyTypeL(unsigned int) const
	?PropertyValueAddressL@CMsgStorePropertyContainer@@QBEXIAAVRMsgStoreAddress@@@Z @ 101 NONAME ; void CMsgStorePropertyContainer::PropertyValueAddressL(unsigned int, class RMsgStoreAddress &) const
	?PropertyValueBoolL@CMsgStorePropertyContainer@@QBEHI@Z @ 102 NONAME ; int CMsgStorePropertyContainer::PropertyValueBoolL(unsigned int) const
	?PropertyValueContainerL@CMsgStorePropertyContainer@@QBEPAV1@I@Z @ 103 NONAME ; class CMsgStorePropertyContainer * CMsgStorePropertyContainer::PropertyValueContainerL(unsigned int) const
	?PropertyValueDes8L@CMsgStorePropertyContainer@@QBEABVTDesC8@@I@Z @ 104 NONAME ; class TDesC8 const & CMsgStorePropertyContainer::PropertyValueDes8L(unsigned int) const
	?PropertyValueDesL@CMsgStorePropertyContainer@@QBEABVTDesC16@@I@Z @ 105 NONAME ; class TDesC16 const & CMsgStorePropertyContainer::PropertyValueDesL(unsigned int) const
	?PropertyValueTimeL@CMsgStorePropertyContainer@@QBEXIAAVTTime@@@Z @ 106 NONAME ; void CMsgStorePropertyContainer::PropertyValueTimeL(unsigned int, class TTime &) const
	?PropertyValueUint32L@CMsgStorePropertyContainer@@QBEKI@Z @ 107 NONAME ; unsigned long CMsgStorePropertyContainer::PropertyValueUint32L(unsigned int) const
	?RemoveChildPartL@CMsgStoreMessagePart@@QAEXIH@Z @ 108 NONAME ; void CMsgStoreMessagePart::RemoveChildPartL(unsigned int, int)
	?RemoveContentL@CMsgStorePropertyContainerWithContent@@QAEXXZ @ 109 NONAME ; void CMsgStorePropertyContainerWithContent::RemoveContentL(void)
	?RemoveObserverL@CMsgStore@@QAEXPAVMMsgStoreObserver@@@Z @ 110 NONAME ; void CMsgStore::RemoveObserverL(class MMsgStoreObserver *)
	?RemoveObserverL@CMsgStoreMailBox@@QAEXPAVMMsgStoreMailBoxObserver@@@Z @ 111 NONAME ; void CMsgStoreMailBox::RemoveObserverL(class MMsgStoreMailBoxObserver *)
	?RemovePropertyL@CMsgStorePropertyContainer@@QAEXI@Z @ 112 NONAME ; void CMsgStorePropertyContainer::RemovePropertyL(unsigned int)
	?RenameAccountL@CMsgStore@@QAEXJABVTDesC16@@0@Z @ 113 NONAME ; void CMsgStore::RenameAccountL(long, class TDesC16 const &, class TDesC16 const &)
	?ReplaceContentL@CMsgStorePropertyContainerWithContent@@QAEXABVTDesC8@@@Z @ 114 NONAME ; void CMsgStorePropertyContainerWithContent::ReplaceContentL(class TDesC8 const &)
	?ReplaceContentWithFileL@CMsgStorePropertyContainerWithContent@@QAEXABVTDesC16@@@Z @ 115 NONAME ; void CMsgStorePropertyContainerWithContent::ReplaceContentWithFileL(class TDesC16 const &)
	?SearchL@CMsgStoreMailBox@@QAEXAAVRMsgStoreSearchCriteria@@AAVMMsgStoreSearchClient@@@Z @ 116 NONAME ; void CMsgStoreMailBox::SearchL(class RMsgStoreSearchCriteria &, class MMsgStoreSearchClient &)
	?SetDefaultMailboxL@CMsgStore@@QAEXI@Z @ 117 NONAME ; void CMsgStore::SetDefaultMailboxL(unsigned int)
	?SetMaxMruAddressCountL@CMsgStore@@QAEXH@Z @ 118 NONAME ; void CMsgStore::SetMaxMruAddressCountL(int)
	?SetNameL@CMsgStoreAccount@@QAEXABVTDesC16@@@Z @ 119 NONAME ; void CMsgStoreAccount::SetNameL(class TDesC16 const &)
	?SetOwner@CMsgStoreAccount@@QAEXJ@Z @ 120 NONAME ; void CMsgStoreAccount::SetOwner(long)
	?SetPasswordL@CMsgStore@@QAEXABVTDesC16@@@Z @ 121 NONAME ; void CMsgStore::SetPasswordL(class TDesC16 const &)
	?SkipAndNextL@CMsgStoreSortResultIterator@@QAEHIIAAV?$RPointerArray@VCMsgStorePropertyContainer@@@@@Z @ 122 NONAME ; int CMsgStoreSortResultIterator::SkipAndNextL(unsigned int, unsigned int, class RPointerArray<class CMsgStorePropertyContainer> &)
	?SkipAndPreviousL@CMsgStoreSortResultIterator@@QAEHIIAAV?$RPointerArray@VCMsgStorePropertyContainer@@@@@Z @ 123 NONAME ; int CMsgStoreSortResultIterator::SkipAndPreviousL(unsigned int, unsigned int, class RPointerArray<class CMsgStorePropertyContainer> &)
	?SortL@CMsgStoreMailBox@@QAEPAVCMsgStoreSortResultIterator@@AAVRMsgStoreSortCriteria@@H@Z @ 124 NONAME ; class CMsgStoreSortResultIterator * CMsgStoreMailBox::SortL(class RMsgStoreSortCriteria &, int)
	?StorePropertiesL@CMsgStoreWritablePropertyContainer@@QAEXXZ @ 125 NONAME ; void CMsgStoreWritablePropertyContainer::StorePropertiesL(void)
	?StorePropertyL@CMsgStoreWritablePropertyContainer@@QAEXI@Z @ 126 NONAME ; void CMsgStoreWritablePropertyContainer::StorePropertyL(unsigned int)
	?TotalMessageCountsL@CMsgStoreMailBox@@QAEXAAI0@Z @ 127 NONAME ; void CMsgStoreMailBox::TotalMessageCountsL(unsigned int &, unsigned int &)
	?UpdatePropertyL@CMsgStorePropertyContainer@@QAEXIABV1@@Z @ 128 NONAME ; void CMsgStorePropertyContainer::UpdatePropertyL(unsigned int, class CMsgStorePropertyContainer const &)
	?UpdatePropertyL@CMsgStorePropertyContainer@@QAEXIABVRMsgStoreAddress@@@Z @ 129 NONAME ; void CMsgStorePropertyContainer::UpdatePropertyL(unsigned int, class RMsgStoreAddress const &)
	?UpdatePropertyL@CMsgStorePropertyContainer@@QAEXIABVTDesC16@@@Z @ 130 NONAME ; void CMsgStorePropertyContainer::UpdatePropertyL(unsigned int, class TDesC16 const &)
	?UpdatePropertyL@CMsgStorePropertyContainer@@QAEXIABVTDesC8@@@Z @ 131 NONAME ; void CMsgStorePropertyContainer::UpdatePropertyL(unsigned int, class TDesC8 const &)
	?UpdatePropertyL@CMsgStorePropertyContainer@@QAEXIABVTTime@@@Z @ 132 NONAME ; void CMsgStorePropertyContainer::UpdatePropertyL(unsigned int, class TTime const &)
	?UpdatePropertyL@CMsgStorePropertyContainer@@QAEXIH@Z @ 133 NONAME ; void CMsgStorePropertyContainer::UpdatePropertyL(unsigned int, int)
	?UpdatePropertyL@CMsgStorePropertyContainer@@QAEXIK@Z @ 134 NONAME ; void CMsgStorePropertyContainer::UpdatePropertyL(unsigned int, unsigned long)
	?WipeEverythingL@CMsgStore@@QAEXXZ @ 135 NONAME ; void CMsgStore::WipeEverythingL(void)
	?PrependToContentL@CMsgStorePropertyContainerWithContent@@QAEXABVTDesC8@@@Z @ 136 NONAME ; void CMsgStorePropertyContainerWithContent::PrependToContentL(class TDesC8 const &)
	?BeginBatchInsertL@CMsgStoreMailBox@@QAEXXZ @ 137 NONAME ; void CMsgStoreMailBox::BeginBatchInsertL(void)
	?FinishBatchInsertL@CMsgStoreMailBox@@QAEXXZ @ 138 NONAME ; void CMsgStoreMailBox::FinishBatchInsertL(void)

