EXPORTS
	_Z24ImplementationGroupProxyRi @ 1 NONAME
	_ZN11IpsSetUtils20IsValidEmailAddressLERK7TDesC16 @ 2 NONAME
	_ZN14CIpsSetDataApi10GoOfflineLE9TMsvEntry @ 3 NONAME
	_ZN14CIpsSetDataApi14RemoveAccountLERK9TMsvEntryR11CMsvSession @ 4 NONAME
	_ZN14CIpsSetDataApi15LaunchSettingsLEl @ 5 NONAME
	_ZN14CIpsSetDataApi15SaveSyncStatusLE9TMsvEntryi @ 6 NONAME
	_ZN14CIpsSetDataApi15SetMailboxNameLER9TMsvEntryRK7TDesC16 @ 7 NONAME
	_ZN14CIpsSetDataApi15SetNewPasswordLER9CMsvEntryRK7TDesC16 @ 8 NONAME
	_ZN14CIpsSetDataApi16CreateCenRepKeyLEmRK4TUidm @ 9 NONAME
	_ZN14CIpsSetDataApi17GetServerAddressLERK9CMsvEntry @ 10 NONAME
	_ZN14CIpsSetDataApi18GetLastSyncStatusLE9TMsvEntry @ 11 NONAME
	_ZN14CIpsSetDataApi18GetMailboxAddressLERK9TMsvEntryRP7HBufC16 @ 12 NONAME
	_ZN14CIpsSetDataApi20GetIMEIFromThePhoneLER4TBufILi50EE @ 13 NONAME
	_ZN14CIpsSetDataApi21HandleMailboxCreationE4TUidR11CMsvSession @ 14 NONAME
	_ZN14CIpsSetDataApi21LoadExtendedSettingsLElR20CIpsSetDataExtension @ 15 NONAME
	_ZN14CIpsSetDataApi21SaveExtendedSettingsLERK20CIpsSetDataExtension @ 16 NONAME
	_ZN14CIpsSetDataApi25GetSubscribedImapFoldersLElR6RArrayIlE @ 17 NONAME
	_ZN14CIpsSetDataApi29ConstructImapPartialFetchInfoER26TImImap4GetPartialMailInfoR16CImImap4Settings @ 18 NONAME
	_ZN14CIpsSetDataApi4NewLER11CMsvSession @ 19 NONAME
	_ZN14CIpsSetDataApi9GoOnlineLE9TMsvEntry @ 20 NONAME
	_ZN20CIpsSetDataExtension11SetHideMsgsEi @ 21 NONAME
	_ZN20CIpsSetDataExtension11SetProtocolERK4TUid @ 22 NONAME
	_ZN20CIpsSetDataExtension12SetAccountIdEm @ 23 NONAME
	_ZN20CIpsSetDataExtension12SetMailboxIdEl @ 24 NONAME
	_ZN20CIpsSetDataExtension13SetDataHiddenEi @ 25 NONAME
	_ZN20CIpsSetDataExtension13SetSyncStatusEi @ 26 NONAME
	_ZN20CIpsSetDataExtension13SetUpdateModeE24TIpsSetDataAoUpdateModes @ 27 NONAME
	_ZN20CIpsSetDataExtension14SetExtensionIdEm @ 28 NONAME
	_ZN20CIpsSetDataExtension14SetStatusFlagsEy @ 29 NONAME
	_ZN20CIpsSetDataExtension15SetEmailAddressERK7TDesC16 @ 30 NONAME
	_ZN20CIpsSetDataExtension15SetLastModifiedE5TTime @ 31 NONAME
	_ZN20CIpsSetDataExtension15SetOpenHtmlMailEi @ 32 NONAME
	_ZN20CIpsSetDataExtension16PopulateDefaultsEv @ 33 NONAME
	_ZN20CIpsSetDataExtension16SetOutgoingLoginEi @ 34 NONAME
	_ZN20CIpsSetDataExtension17SetLastUpdateInfoERK7TAOInfo @ 35 NONAME
	_ZN20CIpsSetDataExtension19SetFirstEmnReceivedEi @ 36 NONAME
	_ZN20CIpsSetDataExtension19SetInboxRefreshTimeEi @ 37 NONAME
	_ZN20CIpsSetDataExtension19SetSelectedTimeStopE5TTime @ 38 NONAME
	_ZN20CIpsSetDataExtension19SetSelectedWeekDaysEj @ 39 NONAME
	_ZN20CIpsSetDataExtension20SetAlwaysOnlineStateE19TIpsSetDataAoStatesi @ 40 NONAME
	_ZN20CIpsSetDataExtension20SetNewMailIndicatorsEi @ 41 NONAME
	_ZN20CIpsSetDataExtension20SetSelectedTimeStartE5TTime @ 42 NONAME
	_ZN20CIpsSetDataExtension25SetEmailNotificationStateE20TIpsSetDataEmnStates @ 43 NONAME
	_ZN20CIpsSetDataExtension30SetEmnReceivedButNotSyncedFlagEi @ 44 NONAME
	_ZN20CIpsSetDataExtension4NewLEv @ 45 NONAME
	_ZN20CIpsSetDataExtension5NewLCEv @ 46 NONAME
	_ZNK20CIpsSetDataExtension10DataHiddenEv @ 47 NONAME
	_ZNK20CIpsSetDataExtension10UpdateModeEv @ 48 NONAME
	_ZNK20CIpsSetDataExtension11ExtensionIdEv @ 49 NONAME
	_ZNK20CIpsSetDataExtension11StatusFlagsEv @ 50 NONAME
	_ZNK20CIpsSetDataExtension12EmailAddressEv @ 51 NONAME
	_ZNK20CIpsSetDataExtension12LastModifiedEv @ 52 NONAME
	_ZNK20CIpsSetDataExtension12OpenHtmlMailEv @ 53 NONAME
	_ZNK20CIpsSetDataExtension13OutgoingLoginEv @ 54 NONAME
	_ZNK20CIpsSetDataExtension14LastSyncStatusEv @ 55 NONAME
	_ZNK20CIpsSetDataExtension14LastUpdateInfoEv @ 56 NONAME
	_ZNK20CIpsSetDataExtension15IsSettingsValidEv @ 57 NONAME
	_ZNK20CIpsSetDataExtension16FirstEmnReceivedEv @ 58 NONAME
	_ZNK20CIpsSetDataExtension16InboxRefreshTimeEv @ 59 NONAME
	_ZNK20CIpsSetDataExtension16SelectedTimeStopEv @ 60 NONAME
	_ZNK20CIpsSetDataExtension16SelectedWeekDaysEv @ 61 NONAME
	_ZNK20CIpsSetDataExtension17AlwaysOnlineStateEv @ 62 NONAME
	_ZNK20CIpsSetDataExtension17NewMailIndicatorsEv @ 63 NONAME
	_ZNK20CIpsSetDataExtension17SelectedTimeStartEv @ 64 NONAME
	_ZNK20CIpsSetDataExtension22EmailNotificationStateEv @ 65 NONAME
	_ZNK20CIpsSetDataExtension27EmnReceivedButNotSyncedFlagEv @ 66 NONAME
	_ZNK20CIpsSetDataExtension7VersionEv @ 67 NONAME
	_ZNK20CIpsSetDataExtension8HideMsgsEv @ 68 NONAME
	_ZNK20CIpsSetDataExtension8ProtocolEv @ 69 NONAME
	_ZNK20CIpsSetDataExtension9AccountIdEv @ 70 NONAME
	_ZNK20CIpsSetDataExtension9MailboxIdEv @ 71 NONAME
	_ZTI11CIpsSetData @ 72 NONAME
	_ZTI11CIpsSetView @ 73 NONAME
	_ZTI13CIpsSetUiItem @ 74 NONAME
	_ZTI14CIpsSetDataApi @ 75 NONAME
	_ZTI14CIpsSetUiNotes @ 76 NONAME
	_ZTI15CIpsSetUiFinder @ 77 NONAME
	_ZTI17CIpsSetDataStorer @ 78 NONAME
	_ZTI17CIpsSetUiApprover @ 79 NONAME
	_ZTI17CIpsSetUiItemLink @ 80 NONAME
	_ZTI18CIpsSetDataManager @ 81 NONAME
	_ZTI18CIpsSetUiBaseArray @ 82 NONAME
	_ZTI18CIpsSetUiItemValue @ 83 NONAME
	_ZTI19CIpsSetUiBaseDialog @ 84 NONAME
	_ZTI19CIpsSetUiDialogCtrl @ 85 NONAME
	_ZTI20CIpsSetDataExtension @ 86 NONAME
	_ZTI20CIpsSetDataSignature @ 87 NONAME
	_ZTI20CIpsSetUiItemLinkExt @ 88 NONAME
	_ZTI20CIpsSetWizardAdapter @ 89 NONAME
	_ZTI21CIpsSetDataCtrlCenrep @ 90 NONAME
	_ZTI22CIpsSetUiItemsEditText @ 91 NONAME
	_ZTI24CIpsSetUiFolderListArray @ 92 NONAME
	_ZTI24CIpsSetUiItemAccessPoint @ 93 NONAME
	_ZTI25CIpsSetUtilsOperationWait @ 94 NONAME
	_ZTI27CIpsSetUiSubscriptionDialog @ 95 NONAME
	_ZTI31CSubscriptionDialogActiveHelper @ 96 NONAME
	_ZTI9CIpsSetUi @ 97 NONAME
	_ZTV11CIpsSetData @ 98 NONAME
	_ZTV11CIpsSetView @ 99 NONAME
	_ZTV13CIpsSetUiItem @ 100 NONAME
	_ZTV14CIpsSetDataApi @ 101 NONAME
	_ZTV14CIpsSetUiNotes @ 102 NONAME
	_ZTV15CIpsSetUiFinder @ 103 NONAME
	_ZTV17CIpsSetDataStorer @ 104 NONAME
	_ZTV17CIpsSetUiApprover @ 105 NONAME
	_ZTV17CIpsSetUiItemLink @ 106 NONAME
	_ZTV18CIpsSetDataManager @ 107 NONAME
	_ZTV18CIpsSetUiBaseArray @ 108 NONAME
	_ZTV18CIpsSetUiItemValue @ 109 NONAME
	_ZTV19CIpsSetUiBaseDialog @ 110 NONAME
	_ZTV19CIpsSetUiDialogCtrl @ 111 NONAME
	_ZTV20CIpsSetDataExtension @ 112 NONAME
	_ZTV20CIpsSetDataSignature @ 113 NONAME
	_ZTV20CIpsSetUiItemLinkExt @ 114 NONAME
	_ZTV20CIpsSetWizardAdapter @ 115 NONAME
	_ZTV21CIpsSetDataCtrlCenrep @ 116 NONAME
	_ZTV22CIpsSetUiItemsEditText @ 117 NONAME
	_ZTV24CIpsSetUiFolderListArray @ 118 NONAME
	_ZTV24CIpsSetUiItemAccessPoint @ 119 NONAME
	_ZTV25CIpsSetUtilsOperationWait @ 120 NONAME
	_ZTV27CIpsSetUiSubscriptionDialog @ 121 NONAME
	_ZTV31CSubscriptionDialogActiveHelper @ 122 NONAME
	_ZTV9CIpsSetUi @ 123 NONAME
	_ZN14CIpsSetDataApi14SignatureTextLERK9TMsvEntry @ 124 NONAME

