EXPORTS
	?ImplementationGroupProxy@@YAPBUTImplementationProxy@@AAH@Z @ 1 NONAME ; struct TImplementationProxy const * ImplementationGroupProxy(int &)
	?NewL@CIpsPlgImap4PopulateOp@@SAPAV1@AAVCMsvSession@@AAVTRequestStatus@@HJAAVCIpsPlgTimerOperation@@ABVTImImap4GetPartialMailInfo@@ABVCMsvEntrySelection@@VTFSMailMsgId@@AAVMFSMailRequestObserver@@HPAVCIpsPlgEventHandler@@H@Z @ 2 NONAME ; class CIpsPlgImap4PopulateOp * CIpsPlgImap4PopulateOp::NewL(class CMsvSession &, class TRequestStatus &, int, long, class CIpsPlgTimerOperation &, class TImImap4GetPartialMailInfo const &, class CMsvEntrySelection const &, class TFSMailMsgId, class MFSMailRequestObserver &, int, class CIpsPlgEventHandler *, int)
	?NewL@CIpsPlgConnectAndRefreshFolderList@@SAPAV1@AAVCMsvSession@@HAAVTRequestStatus@@JAAVTFSMailMsgId@@AAVCMsvEntrySelection@@AAVMFSMailRequestObserver@@AAVCIpsPlgTimerOperation@@@Z @ 3 NONAME ; class CIpsPlgConnectAndRefreshFolderList * CIpsPlgConnectAndRefreshFolderList::NewL(class CMsvSession &, int, class TRequestStatus &, long, class TFSMailMsgId &, class CMsvEntrySelection &, class MFSMailRequestObserver &, class CIpsPlgTimerOperation &)
	??1CIpsPlgSingleOpWatcher@@UAE@XZ @ 4 NONAME ; CIpsPlgSingleOpWatcher::~CIpsPlgSingleOpWatcher(void)
	?NewL@CIpsPlgImap4Plugin@@SAPAV1@XZ @ 5 NONAME ; class CIpsPlgImap4Plugin * CIpsPlgImap4Plugin::NewL(void)
	?NewLC@CIpsPlgSmtpOperation@@SAPAV1@AAVCMsvSession@@HAAVTRequestStatus@@PAVMFSMailRequestObserver@@H@Z @ 6 NONAME ; class CIpsPlgSmtpOperation * CIpsPlgSmtpOperation::NewLC(class CMsvSession &, int, class TRequestStatus &, class MFSMailRequestObserver *, int)
	??1CIpsPlgSosBasePlugin@@UAE@XZ @ 7 NONAME ; CIpsPlgSosBasePlugin::~CIpsPlgSosBasePlugin(void)
	?GetOutboxChildrensL@CIpsPlgSmtpOperation@@QAEPAVCMsvEntrySelection@@XZ @ 8 NONAME ; class CMsvEntrySelection * CIpsPlgSmtpOperation::GetOutboxChildrensL(void)
	?NewLC@CIpsPlgPop3Plugin@@SAPAV1@XZ @ 9 NONAME ; class CIpsPlgPop3Plugin * CIpsPlgPop3Plugin::NewLC(void)
	?NewL@CIpsPlgSmtpOperation@@SAPAV1@AAVCMsvSession@@HAAVTRequestStatus@@PAVMFSMailRequestObserver@@H@Z @ 10 NONAME ; class CIpsPlgSmtpOperation * CIpsPlgSmtpOperation::NewL(class CMsvSession &, int, class TRequestStatus &, class MFSMailRequestObserver *, int)
	?NewL@CIpsPlgSingleOpWatcher@@SAPAV1@AAVMIpsPlgSingleOpWatcher@@@Z @ 11 NONAME ; class CIpsPlgSingleOpWatcher * CIpsPlgSingleOpWatcher::NewL(class MIpsPlgSingleOpWatcher &)
	?NewLC@CIpsPlgSmtpService@@SAPAV1@AAVCMsvSession@@AAVCIpsPlgSosBasePlugin@@@Z @ 12 NONAME ; class CIpsPlgSmtpService * CIpsPlgSmtpService::NewLC(class CMsvSession &, class CIpsPlgSosBasePlugin &)
	?StartSendL@CIpsPlgSmtpOperation@@QAEXJ@Z @ 13 NONAME ; void CIpsPlgSmtpOperation::StartSendL(long)
	?EmptyOutboxFromPendingMessagesL@CIpsPlgSmtpOperation@@QAEHJ@Z @ 14 NONAME ; int CIpsPlgSmtpOperation::EmptyOutboxFromPendingMessagesL(long)
	?NewLC@CIpsPlgImap4Plugin@@SAPAV1@XZ @ 15 NONAME ; class CIpsPlgImap4Plugin * CIpsPlgImap4Plugin::NewLC(void)
	?NewL@CIpsPlgPop3Plugin@@SAPAV1@XZ @ 16 NONAME ; class CIpsPlgPop3Plugin * CIpsPlgPop3Plugin::NewL(void)
	?SetOperation@CIpsPlgSingleOpWatcher@@QAEXPAVCMsvOperation@@@Z @ 17 NONAME ; void CIpsPlgSingleOpWatcher::SetOperation(class CMsvOperation *)
	?NewLC@CIpsPlgSingleOpWatcher@@SAPAV1@AAVMIpsPlgSingleOpWatcher@@@Z @ 18 NONAME ; class CIpsPlgSingleOpWatcher * CIpsPlgSingleOpWatcher::NewLC(class MIpsPlgSingleOpWatcher &)
	?Operation@CIpsPlgSingleOpWatcher@@QBEAAVCMsvOperation@@XZ @ 19 NONAME ; class CMsvOperation & CIpsPlgSingleOpWatcher::Operation(void) const
	?NewL@CIpsPlgSmtpService@@SAPAV1@AAVCMsvSession@@AAVCIpsPlgSosBasePlugin@@@Z @ 20 NONAME ; class CIpsPlgSmtpService * CIpsPlgSmtpService::NewL(class CMsvSession &, class CIpsPlgSosBasePlugin &)

