EXPORTS
	_ZN13NmMessageTask11qt_metacallEN11QMetaObject4CallEiPPv @ 1 NONAME
	_ZN13NmMessageTask11qt_metacastEPKc @ 2 NONAME
	_ZN13NmMessageTask16staticMetaObjectE @ 3 NONAME DATA 16
	_ZN13NmMessageTask19getStaticMetaObjectEv @ 4 NONAME
	_ZN13NmMessageTask6failedEi @ 5 NONAME
	_ZN13NmMessageTask8canceledEv @ 6 NONAME
	_ZN13NmMessageTaskC2EP7QObject @ 7 NONAME
	_ZN13NmMessageTaskD0Ev @ 8 NONAME
	_ZN13NmMessageTaskD1Ev @ 9 NONAME
	_ZN13NmMessageTaskD2Ev @ 10 NONAME
	_ZN14EmailClientApi13NmMessageBody10setContentERK7QString @ 11 NONAME
	_ZN14EmailClientApi13NmMessageBody12setTotalSizeEy @ 12 NONAME
	_ZN14EmailClientApi13NmMessageBody14setFetchedSizeEy @ 13 NONAME
	_ZN14EmailClientApi13NmMessageBodyC1Ev @ 14 NONAME
	_ZN14EmailClientApi13NmMessageBodyC2Ev @ 15 NONAME
	_ZN14EmailClientApi13NmMessageBodyD0Ev @ 16 NONAME
	_ZN14EmailClientApi13NmMessageBodyD1Ev @ 17 NONAME
	_ZN14EmailClientApi13NmMessageBodyD2Ev @ 18 NONAME
	_ZN14EmailClientApi14NmEmailAddress10setAddressERK7QString @ 19 NONAME
	_ZN14EmailClientApi14NmEmailAddress14setDisplayNameERK7QString @ 20 NONAME
	_ZN14EmailClientApi14NmEmailAddressC1Ev @ 21 NONAME
	_ZN14EmailClientApi14NmEmailAddressC2Ev @ 22 NONAME
	_ZN14EmailClientApi14NmEmailAddressD0Ev @ 23 NONAME
	_ZN14EmailClientApi14NmEmailAddressD1Ev @ 24 NONAME
	_ZN14EmailClientApi14NmEmailAddressD2Ev @ 25 NONAME
	_ZN14EmailClientApi14NmEmailService10getMailboxEyRNS_9NmMailboxE @ 26 NONAME
	_ZN14EmailClientApi14NmEmailService10initialiseEv @ 27 NONAME
	_ZN14EmailClientApi14NmEmailService11getEnvelopeEyyyRNS_17NmMessageEnvelopeE @ 28 NONAME
	_ZN14EmailClientApi14NmEmailService11initializedEb @ 29 NONAME
	_ZN14EmailClientApi14NmEmailService11qt_metacallEN11QMetaObject4CallEiPPv @ 30 NONAME
	_ZN14EmailClientApi14NmEmailService11qt_metacastEPKc @ 31 NONAME
	_ZN14EmailClientApi14NmEmailService12uninitialiseEv @ 32 NONAME
	_ZN14EmailClientApi14NmEmailService16staticMetaObjectE @ 33 NONAME DATA 16
	_ZN14EmailClientApi14NmEmailService19getStaticMetaObjectEv @ 34 NONAME
	_ZN14EmailClientApi14NmEmailServiceC1EP7QObject @ 35 NONAME
	_ZN14EmailClientApi14NmEmailServiceC2EP7QObject @ 36 NONAME
	_ZN14EmailClientApi14NmEmailServiceD0Ev @ 37 NONAME
	_ZN14EmailClientApi14NmEmailServiceD1Ev @ 38 NONAME
	_ZN14EmailClientApi14NmEmailServiceD2Ev @ 39 NONAME
	_ZN14EmailClientApi15NmEventNotifier11qt_metacallEN11QMetaObject4CallEiPPv @ 40 NONAME
	_ZN14EmailClientApi15NmEventNotifier11qt_metacastEPKc @ 41 NONAME
	_ZN14EmailClientApi15NmEventNotifier12mailboxEventE12MailboxEvent5QListIyE @ 42 NONAME
	_ZN14EmailClientApi15NmEventNotifier12messageEventE12MessageEventyy5QListIyE @ 43 NONAME
	_ZN14EmailClientApi15NmEventNotifier16staticMetaObjectE @ 44 NONAME DATA 16
	_ZN14EmailClientApi15NmEventNotifier19getStaticMetaObjectEv @ 45 NONAME
	_ZN14EmailClientApi15NmEventNotifier20sendEventsFromBufferEv @ 46 NONAME
	_ZN14EmailClientApi15NmEventNotifier5startEv @ 47 NONAME
	_ZN14EmailClientApi15NmEventNotifier6cancelEv @ 48 NONAME
	_ZN14EmailClientApi15NmEventNotifierC1EP7QObject @ 49 NONAME
	_ZN14EmailClientApi15NmEventNotifierC2EP7QObject @ 50 NONAME
	_ZN14EmailClientApi15NmEventNotifierD0Ev @ 51 NONAME
	_ZN14EmailClientApi15NmEventNotifierD1Ev @ 52 NONAME
	_ZN14EmailClientApi15NmEventNotifierD2Ev @ 53 NONAME
	_ZN14EmailClientApi15NmFolderListing10getFoldersER5QListINS_8NmFolderEE @ 54 NONAME
	_ZN14EmailClientApi15NmFolderListing11qt_metacallEN11QMetaObject4CallEiPPv @ 55 NONAME
	_ZN14EmailClientApi15NmFolderListing11qt_metacastEPKc @ 56 NONAME
	_ZN14EmailClientApi15NmFolderListing13foldersListedEi @ 57 NONAME
	_ZN14EmailClientApi15NmFolderListing16staticMetaObjectE @ 58 NONAME DATA 16
	_ZN14EmailClientApi15NmFolderListing19getStaticMetaObjectEv @ 59 NONAME
	_ZN14EmailClientApi15NmFolderListing5startEv @ 60 NONAME
	_ZN14EmailClientApi15NmFolderListing6cancelEv @ 61 NONAME
	_ZN14EmailClientApi15NmFolderListingC1EP7QObjectRKy @ 62 NONAME
	_ZN14EmailClientApi15NmFolderListingC2EP7QObjectRKy @ 63 NONAME
	_ZN14EmailClientApi15NmFolderListingD0Ev @ 64 NONAME
	_ZN14EmailClientApi15NmFolderListingD1Ev @ 65 NONAME
	_ZN14EmailClientApi15NmFolderListingD2Ev @ 66 NONAME
	_ZN14EmailClientApi16NmMailboxListing11qt_metacallEN11QMetaObject4CallEiPPv @ 67 NONAME
	_ZN14EmailClientApi16NmMailboxListing11qt_metacastEPKc @ 68 NONAME
	_ZN14EmailClientApi16NmMailboxListing12getMailboxesER5QListINS_9NmMailboxEE @ 69 NONAME
	_ZN14EmailClientApi16NmMailboxListing15mailboxesListedEi @ 70 NONAME
	_ZN14EmailClientApi16NmMailboxListing16staticMetaObjectE @ 71 NONAME DATA 16
	_ZN14EmailClientApi16NmMailboxListing19getStaticMetaObjectEv @ 72 NONAME
	_ZN14EmailClientApi16NmMailboxListing5startEv @ 73 NONAME
	_ZN14EmailClientApi16NmMailboxListing6cancelEv @ 74 NONAME
	_ZN14EmailClientApi16NmMailboxListingC1EP7QObject @ 75 NONAME
	_ZN14EmailClientApi16NmMailboxListingC2EP7QObject @ 76 NONAME
	_ZN14EmailClientApi16NmMailboxListingD0Ev @ 77 NONAME
	_ZN14EmailClientApi16NmMailboxListingD1Ev @ 78 NONAME
	_ZN14EmailClientApi16NmMailboxListingD2Ev @ 79 NONAME
	_ZN14EmailClientApi17NmEnvelopeListing11qt_metacallEN11QMetaObject4CallEiPPv @ 80 NONAME
	_ZN14EmailClientApi17NmEnvelopeListing11qt_metacastEPKc @ 81 NONAME
	_ZN14EmailClientApi17NmEnvelopeListing12getEnvelopesER5QListINS_17NmMessageEnvelopeEE @ 82 NONAME
	_ZN14EmailClientApi17NmEnvelopeListing15envelopesListedEi @ 83 NONAME
	_ZN14EmailClientApi17NmEnvelopeListing16staticMetaObjectE @ 84 NONAME DATA 16
	_ZN14EmailClientApi17NmEnvelopeListing19getStaticMetaObjectEv @ 85 NONAME
	_ZN14EmailClientApi17NmEnvelopeListing5startEv @ 86 NONAME
	_ZN14EmailClientApi17NmEnvelopeListing6cancelEv @ 87 NONAME
	_ZN14EmailClientApi17NmEnvelopeListingC1EP7QObjectyy @ 88 NONAME
	_ZN14EmailClientApi17NmEnvelopeListingC2EP7QObjectyy @ 89 NONAME
	_ZN14EmailClientApi17NmEnvelopeListingD0Ev @ 90 NONAME
	_ZN14EmailClientApi17NmEnvelopeListingD1Ev @ 91 NONAME
	_ZN14EmailClientApi17NmEnvelopeListingD2Ev @ 92 NONAME
	_ZN14EmailClientApi17NmMessageEnvelope10setSubjectERK7QString @ 93 NONAME
	_ZN14EmailClientApi17NmMessageEnvelope11setSentTimeE9QDateTime @ 94 NONAME
	_ZN14EmailClientApi17NmMessageEnvelope12setIsRepliedEb @ 95 NONAME
	_ZN14EmailClientApi17NmMessageEnvelope12setPlainTextERK7QString @ 96 NONAME
	_ZN14EmailClientApi17NmMessageEnvelope12setTotalSizeEy @ 97 NONAME
	_ZN14EmailClientApi17NmMessageEnvelope14setContentTypeERK7QString @ 98 NONAME
	_ZN14EmailClientApi17NmMessageEnvelope14setFetchedSizeEy @ 99 NONAME
	_ZN14EmailClientApi17NmMessageEnvelope14setIsForwardedEb @ 100 NONAME
	_ZN14EmailClientApi17NmMessageEnvelope15getCcRecipientsER5QListINS_14NmEmailAddressEE @ 101 NONAME
	_ZN14EmailClientApi17NmMessageEnvelope15getToRecipientsER5QListINS_14NmEmailAddressEE @ 102 NONAME
	_ZN14EmailClientApi17NmMessageEnvelope15setCcRecipientsERK5QListINS_14NmEmailAddressEE @ 103 NONAME
	_ZN14EmailClientApi17NmMessageEnvelope15setParentFolderEy @ 104 NONAME
	_ZN14EmailClientApi17NmMessageEnvelope15setToRecipientsERK5QListINS_14NmEmailAddressEE @ 105 NONAME
	_ZN14EmailClientApi17NmMessageEnvelope16getPlainTextBodyERNS_13NmMessageBodyE @ 106 NONAME
	_ZN14EmailClientApi17NmMessageEnvelope17setHasAttachmentsEb @ 107 NONAME
	_ZN14EmailClientApi17NmMessageEnvelope5setIdEy @ 108 NONAME
	_ZN14EmailClientApi17NmMessageEnvelope9setIsReadEb @ 109 NONAME
	_ZN14EmailClientApi17NmMessageEnvelope9setSenderERK7QString @ 110 NONAME
	_ZN14EmailClientApi17NmMessageEnvelopeC1Ev @ 111 NONAME
	_ZN14EmailClientApi17NmMessageEnvelopeC2Ev @ 112 NONAME
	_ZN14EmailClientApi17NmMessageEnvelopeD0Ev @ 113 NONAME
	_ZN14EmailClientApi17NmMessageEnvelopeD1Ev @ 114 NONAME
	_ZN14EmailClientApi17NmMessageEnvelopeD2Ev @ 115 NONAME
	_ZN14EmailClientApi17NmMessageEnvelopeaSERKS0_ @ 116 NONAME
	_ZN14EmailClientApi8NmFolder13setFolderTypeENS_15EmailFolderTypeE @ 117 NONAME
	_ZN14EmailClientApi8NmFolder17getChildFolderIdsER5QListIyE @ 118 NONAME
	_ZN14EmailClientApi8NmFolder17setChildFolderIdsER5QListIyE @ 119 NONAME
	_ZN14EmailClientApi8NmFolder17setParentFolderIdEy @ 120 NONAME
	_ZN14EmailClientApi8NmFolder5setIdEy @ 121 NONAME
	_ZN14EmailClientApi8NmFolder7setNameERK7QString @ 122 NONAME
	_ZN14EmailClientApi8NmFolderC1Ev @ 123 NONAME
	_ZN14EmailClientApi8NmFolderC2Ev @ 124 NONAME
	_ZN14EmailClientApi8NmFolderD1Ev @ 125 NONAME
	_ZN14EmailClientApi8NmFolderD2Ev @ 126 NONAME
	_ZN14EmailClientApi9NmMailbox10setAddressERK7QString @ 127 NONAME
	_ZN14EmailClientApi9NmMailbox5setIdEy @ 128 NONAME
	_ZN14EmailClientApi9NmMailbox7setNameERK7QString @ 129 NONAME
	_ZN14EmailClientApi9NmMailboxC1Ev @ 130 NONAME
	_ZN14EmailClientApi9NmMailboxC2Ev @ 131 NONAME
	_ZN14EmailClientApi9NmMailboxD0Ev @ 132 NONAME
	_ZN14EmailClientApi9NmMailboxD1Ev @ 133 NONAME
	_ZN14EmailClientApi9NmMailboxD2Ev @ 134 NONAME
	_ZN14EmailClientApi9NmMailboxaSERKS0_ @ 135 NONAME
	_ZNK13NmMessageTask10metaObjectEv @ 136 NONAME
	_ZNK14EmailClientApi13NmMessageBody11fetchedSizeEv @ 137 NONAME
	_ZNK14EmailClientApi13NmMessageBody7contentEv @ 138 NONAME
	_ZNK14EmailClientApi13NmMessageBody9totalSizeEv @ 139 NONAME
	_ZNK14EmailClientApi14NmEmailAddress11displayNameEv @ 140 NONAME
	_ZNK14EmailClientApi14NmEmailAddress7addressEv @ 141 NONAME
	_ZNK14EmailClientApi14NmEmailService10metaObjectEv @ 142 NONAME
	_ZNK14EmailClientApi14NmEmailService9isRunningEv @ 143 NONAME
	_ZNK14EmailClientApi15NmEventNotifier10metaObjectEv @ 144 NONAME
	_ZNK14EmailClientApi15NmEventNotifier9isRunningEv @ 145 NONAME
	_ZNK14EmailClientApi15NmFolderListing10metaObjectEv @ 146 NONAME
	_ZNK14EmailClientApi15NmFolderListing9isRunningEv @ 147 NONAME
	_ZNK14EmailClientApi16NmMailboxListing10metaObjectEv @ 148 NONAME
	_ZNK14EmailClientApi16NmMailboxListing9isRunningEv @ 149 NONAME
	_ZNK14EmailClientApi17NmEnvelopeListing10metaObjectEv @ 150 NONAME
	_ZNK14EmailClientApi17NmEnvelopeListing9isRunningEv @ 151 NONAME
	_ZNK14EmailClientApi17NmMessageEnvelope11contentTypeEv @ 152 NONAME
	_ZNK14EmailClientApi17NmMessageEnvelope11fetchedSizeEv @ 153 NONAME
	_ZNK14EmailClientApi17NmMessageEnvelope11isForwardedEv @ 154 NONAME
	_ZNK14EmailClientApi17NmMessageEnvelope12parentFolderEv @ 155 NONAME
	_ZNK14EmailClientApi17NmMessageEnvelope14hasAttachmentsEv @ 156 NONAME
	_ZNK14EmailClientApi17NmMessageEnvelope2idEv @ 157 NONAME
	_ZNK14EmailClientApi17NmMessageEnvelope6isReadEv @ 158 NONAME
	_ZNK14EmailClientApi17NmMessageEnvelope6senderEv @ 159 NONAME
	_ZNK14EmailClientApi17NmMessageEnvelope7subjectEv @ 160 NONAME
	_ZNK14EmailClientApi17NmMessageEnvelope8sentTimeEv @ 161 NONAME
	_ZNK14EmailClientApi17NmMessageEnvelope9isRepliedEv @ 162 NONAME
	_ZNK14EmailClientApi17NmMessageEnvelope9plainTextEv @ 163 NONAME
	_ZNK14EmailClientApi17NmMessageEnvelope9totalSizeEv @ 164 NONAME
	_ZNK14EmailClientApi8NmFolder10folderTypeEv @ 165 NONAME
	_ZNK14EmailClientApi8NmFolder14parentFolderIdEv @ 166 NONAME
	_ZNK14EmailClientApi8NmFolder2idEv @ 167 NONAME
	_ZNK14EmailClientApi8NmFolder4nameEv @ 168 NONAME
	_ZNK14EmailClientApi9NmMailbox2idEv @ 169 NONAME
	_ZNK14EmailClientApi9NmMailbox4nameEv @ 170 NONAME
	_ZNK14EmailClientApi9NmMailbox7addressEv @ 171 NONAME
	_ZTI13NmMessageTask @ 172 NONAME
	_ZTIN14EmailClientApi13NmMessageBodyE @ 173 NONAME
	_ZTIN14EmailClientApi14NmEmailAddressE @ 174 NONAME
	_ZTIN14EmailClientApi14NmEmailServiceE @ 175 NONAME
	_ZTIN14EmailClientApi15NmEventNotifierE @ 176 NONAME
	_ZTIN14EmailClientApi15NmFolderListingE @ 177 NONAME
	_ZTIN14EmailClientApi16NmMailboxListingE @ 178 NONAME
	_ZTIN14EmailClientApi17NmEnvelopeListingE @ 179 NONAME
	_ZTIN14EmailClientApi17NmMessageEnvelopeE @ 180 NONAME
	_ZTIN14EmailClientApi9NmMailboxE @ 181 NONAME
	_ZTV13NmMessageTask @ 182 NONAME
	_ZTVN14EmailClientApi13NmMessageBodyE @ 183 NONAME
	_ZTVN14EmailClientApi14NmEmailAddressE @ 184 NONAME
	_ZTVN14EmailClientApi14NmEmailServiceE @ 185 NONAME
	_ZTVN14EmailClientApi15NmEventNotifierE @ 186 NONAME
	_ZTVN14EmailClientApi15NmFolderListingE @ 187 NONAME
	_ZTVN14EmailClientApi16NmMailboxListingE @ 188 NONAME
	_ZTVN14EmailClientApi17NmEnvelopeListingE @ 189 NONAME
	_ZTVN14EmailClientApi17NmMessageEnvelopeE @ 190 NONAME
	_ZTVN14EmailClientApi9NmMailboxE @ 191 NONAME

