EXPORTS
	??0CFsActionMenu@@IAE@AAVCAlfDisplay@@@Z @ 1 NONAME ; CFsActionMenu::CFsActionMenu(class CAlfDisplay &)
	??0CFsControlButtonVisualiser@@IAE@AAVCAlfControl@@AAVCAlfDeckLayout@@PAVCFsTextStyleManager@@@Z @ 2 NONAME ; CFsControlButtonVisualiser::CFsControlButtonVisualiser(class CAlfControl &, class CAlfDeckLayout &, class CFsTextStyleManager *)
	??0CFsControlButtonVisualiser@@IAE@XZ @ 3 NONAME ; CFsControlButtonVisualiser::CFsControlButtonVisualiser(void)
	??0CFsLayoutManager@@QAE@XZ @ 4 NONAME ; CFsLayoutManager::CFsLayoutManager(void)
	??0CFsTreeList@@IAE@AAVCAlfEnv@@AAVCFsTreeVisualizerBase@@@Z @ 5 NONAME ; CFsTreeList::CFsTreeList(class CAlfEnv &, class CFsTreeVisualizerBase &)
	??0CMyPicture@@QAE@VTSize@@AAVCFbsBitmap@@1@Z @ 6 NONAME ; CMyPicture::CMyPicture(class TSize, class CFbsBitmap &, class CFbsBitmap &)
	??0CMyPicture@@QAE@VTSize@@AAVCFbsBitmap@@@Z @ 7 NONAME ; CMyPicture::CMyPicture(class TSize, class CFbsBitmap &)
	??1CFsActionMenu@@UAE@XZ @ 8 NONAME ; CFsActionMenu::~CFsActionMenu(void)
	??1CFsControlButtonVisualiser@@UAE@XZ @ 9 NONAME ; CFsControlButtonVisualiser::~CFsControlButtonVisualiser(void)
	??1CFsRichText@@UAE@XZ @ 10 NONAME ; CFsRichText::~CFsRichText(void)
	??1CFsSmileyDictionary@@UAE@XZ @ 11 NONAME ; CFsSmileyDictionary::~CFsSmileyDictionary(void)
	??1CFsTextViewer@@UAE@XZ @ 12 NONAME ; CFsTextViewer::~CFsTextViewer(void)
	??1CFsTextViewerKeys@@UAE@XZ @ 13 NONAME ; CFsTextViewerKeys::~CFsTextViewerKeys(void)
	??1CFsTextViewerWatermark@@UAE@XZ @ 14 NONAME ; CFsTextViewerWatermark::~CFsTextViewerWatermark(void)
	??1CFsTreeList@@UAE@XZ @ 15 NONAME ; CFsTreeList::~CFsTreeList(void)
	??1CMyPicture@@UAE@XZ @ 16 NONAME ; CMyPicture::~CMyPicture(void)
	?ActionMenuSize@CFsActionMenu@@QAE?AVTSize@@XZ @ 17 NONAME ; class TSize CFsActionMenu::ActionMenuSize(void)
	?AddButtonL@CFsControlBar@@QAEHW4TFsControlButtonType@@@Z @ 18 NONAME ; int CFsControlBar::AddButtonL(enum TFsControlButtonType)
	?AddButtonL@CFsControlBar@@QAEXHW4TFsControlButtonType@@@Z @ 19 NONAME ; void CFsControlBar::AddButtonL(int, enum TFsControlButtonType)
	?AddNewL@CFsAlfScrollbarLayout@@SAPAV1@AAVCAlfControl@@PAVCAlfLayout@@@Z @ 20 NONAME ; class CFsAlfScrollbarLayout * CFsAlfScrollbarLayout::AddNewL(class CAlfControl &, class CAlfLayout *)
	?AddNewSmileyL@CFsSmileyDictionary@@QAEXABVTDesC16@@V?$TBuf@$0BAA@@@@Z @ 21 NONAME ; void CFsSmileyDictionary::AddNewSmileyL(class TDesC16 const &, class TBuf<256>)
	?AddObserverL@CFsControlBar@@QAEXAAVMFsControlBarObserver@@@Z @ 22 NONAME ; void CFsControlBar::AddObserverL(class MFsControlBarObserver &)
	?AddObserverL@CFsTreeList@@QAEXAAVMFsTreeListObserver@@@Z @ 23 NONAME ; void CFsTreeList::AddObserverL(class MFsTreeListObserver &)
	?BackgroundOpacity@CFsTextViewer@@QBEABVTAlfTimedValue@@XZ @ 24 NONAME ; class TAlfTimedValue const & CFsTextViewer::BackgroundOpacity(void) const
	?ButtonById@CFsControlBar@@QAEPAVMFsControlButtonInterface@@H@Z @ 25 NONAME ; class MFsControlButtonInterface * CFsControlBar::ButtonById(int)
	?ButtonGroupContainer@CFsActionMenu@@QAEPAVCEikButtonGroupContainer@@XZ @ 26 NONAME ; class CEikButtonGroupContainer * CFsActionMenu::ButtonGroupContainer(void)
	?CalculateButtonSize@CFsControlButtonVisualiser@@MAEHXZ @ 27 NONAME ; int CFsControlButtonVisualiser::CalculateButtonSize(void)
	?Child@CFsTreeList@@QBEHHI@Z @ 28 NONAME ; int CFsTreeList::Child(int, unsigned int) const
	?ChildIndex@CFsTreeList@@QBEIHH@Z @ 29 NONAME ; unsigned int CFsTreeList::ChildIndex(int, int) const
	?ClearBackground@CFsTreeVisualizerBase@@QAEXXZ @ 30 NONAME ; void CFsTreeVisualizerBase::ClearBackground(void)
	?ClearBackgroundColor@CFsControlBar@@QAEXXZ @ 31 NONAME ; void CFsControlBar::ClearBackgroundColor(void)
	?ClearBackgroundColor@CFsControlBarVisualiser@@UAEXXZ @ 32 NONAME ; void CFsControlBarVisualiser::ClearBackgroundColor(void)
	?ClearBackgroundColor@CFsControlButtonVisualiser@@UAEXXZ @ 33 NONAME ; void CFsControlButtonVisualiser::ClearBackgroundColor(void)
	?ClearBackgroundImage@CFsControlBar@@QAEXXZ @ 34 NONAME ; void CFsControlBar::ClearBackgroundImage(void)
	?ClearBackgroundImage@CFsControlButtonVisualiser@@UAEXXZ @ 35 NONAME ; void CFsControlButtonVisualiser::ClearBackgroundImage(void)
	?CollapseNodeL@CFsTreeList@@QAEXH@Z @ 36 NONAME ; void CFsTreeList::CollapseNodeL(int)
	?ConstructL@CFsActionMenu@@IAEXH@Z @ 37 NONAME ; void CFsActionMenu::ConstructL(int)
	?ConstructL@CFsControlButtonVisualiser@@MAEXXZ @ 38 NONAME ; void CFsControlButtonVisualiser::ConstructL(void)
	?ConstructL@CFsTreeList@@IAEXAAVCAlfEnv@@@Z @ 39 NONAME ; void CFsTreeList::ConstructL(class CAlfEnv &)
	?Contains@CFsTreeList@@QBEHH@Z @ 40 NONAME ; int CFsTreeList::Contains(int) const
	?Count@CFsTreeList@@QBEIXZ @ 41 NONAME ; unsigned int CFsTreeList::Count(void) const
	?CountChildren@CFsTreeList@@QBEIH@Z @ 42 NONAME ; unsigned int CFsTreeList::CountChildren(int) const
	?CreateButtonVisualsL@CFsControlButtonVisualiser@@MAEXXZ @ 43 NONAME ; void CFsControlButtonVisualiser::CreateButtonVisualsL(void)
	?CursorUpDown@CFsTextViewer@@QAEHXZ @ 44 NONAME ; int CFsTextViewer::CursorUpDown(void)
	?Draw@CMyPicture@@UBEXAAVCGraphicsContext@@ABVTPoint@@ABVTRect@@PAVMGraphicsDeviceMap@@@Z @ 45 NONAME ; void CMyPicture::Draw(class CGraphicsContext &, class TPoint const &, class TRect const &, class MGraphicsDeviceMap *) const
	?EnableCursorUpDown@CFsTextViewer@@QAEXH@Z @ 46 NONAME ; void CFsTextViewer::EnableCursorUpDown(int)
	?EnableSmileys@CFsTextViewer@@QAEXH@Z @ 47 NONAME ; void CFsTextViewer::EnableSmileys(int)
	?EnableTouch@CFsControlBar@@QAEXH@Z @ 48 NONAME ; void CFsControlBar::EnableTouch(int)
	?ExecuteL@CFsActionMenu@@QAE?AW4TFsActionMenuResult@@H@Z @ 49 NONAME ; enum TFsActionMenuResult CFsActionMenu::ExecuteL(int)
	?ExecuteL@CFsActionMenu@@UAE?AW4TFsActionMenuResult@@W4TFsVActionMenuPosition@@@Z @ 50 NONAME ; enum TFsActionMenuResult CFsActionMenu::ExecuteL(enum TFsVActionMenuPosition)
	?ExpandNodeL@CFsTreeList@@QAEXH@Z @ 51 NONAME ; void CFsTreeList::ExpandNodeL(int)
	?ExternalizeL@CMyPicture@@UBEXAAVRWriteStream@@@Z @ 52 NONAME ; void CMyPicture::ExternalizeL(class RWriteStream &) const
	?FadeInEffectTime@CFsTreeList@@QAEHXZ @ 53 NONAME ; int CFsTreeList::FadeInEffectTime(void)
	?FadeOutEffectTime@CFsTreeList@@QAEHXZ @ 54 NONAME ; int CFsTreeList::FadeOutEffectTime(void)
	?FocusLineL@CFsTextViewer@@QAEXHH@Z @ 55 NONAME ; void CFsTextViewer::FocusLineL(int, int)
	?FocusedItem@CFsTreeList@@QBEHXZ @ 56 NONAME ; int CFsTreeList::FocusedItem(void) const
	?GetBitmap@CMyPicture@@QAEPAVCFbsBitmap@@XZ @ 57 NONAME ; class CFbsBitmap * CMyPicture::GetBitmap(void)
	?GetBitmapMask@CMyPicture@@QAEPAVCFbsBitmap@@XZ @ 58 NONAME ; class CFbsBitmap * CMyPicture::GetBitmapMask(void)
	?GetControl@CFsTextViewer@@QBEPAVCAlfControl@@XZ @ 59 NONAME ; class CAlfControl * CFsTextViewer::GetControl(void) const
	?GetCurrentHotspotByOrder@CFsTextViewer@@QAEHXZ @ 60 NONAME ; int CFsTextViewer::GetCurrentHotspotByOrder(void)
	?GetCurrentHotspotL@CFsTextViewer@@QAEXAAH0@Z @ 61 NONAME ; void CFsTextViewer::GetCurrentHotspotL(int &, int &)
	?GetCurrentHotspotTextL@CFsTextViewer@@QAEPAVHBufC16@@XZ @ 62 NONAME ; class HBufC16 * CFsTextViewer::GetCurrentHotspotTextL(void)
	?GetExpandAreaL@CFsRichText@@QAE?AVTRichTextExapandArea@@H@Z @ 63 NONAME ; class TRichTextExapandArea CFsRichText::GetExpandAreaL(int)
	?GetFirstCharInLine@CFsTextViewer@@QAEHH@Z @ 64 NONAME ; int CFsTextViewer::GetFirstCharInLine(int)
	?GetFirstDisplayedLine@CFsTextViewer@@QAEHXZ @ 65 NONAME ; int CFsTextViewer::GetFirstDisplayedLine(void)
	?GetFocusedButton@CFsControlBar@@QBEPAVMFsControlButtonInterface@@XZ @ 66 NONAME ; class MFsControlButtonInterface * CFsControlBar::GetFocusedButton(void) const
	?GetHotSpotAreaL@CFsRichText@@QAE?AVTRichTextHotSpotArea@@H@Z @ 67 NONAME ; class TRichTextHotSpotArea CFsRichText::GetHotSpotAreaL(int)
	?GetItemDisplayRectTarget@CFsTreeList@@QAEHHAAUTAlfRealRect@@@Z @ 68 NONAME ; int CFsTreeList::GetItemDisplayRectTarget(int, struct TAlfRealRect &)
	?GetKeyClick@CFsTextViewerKeys@@QAEHXZ @ 69 NONAME ; int CFsTextViewerKeys::GetKeyClick(void)
	?GetKeyDown@CFsTextViewerKeys@@QAEHXZ @ 70 NONAME ; int CFsTextViewerKeys::GetKeyDown(void)
	?GetKeyLeft@CFsTextViewerKeys@@QAEHXZ @ 71 NONAME ; int CFsTextViewerKeys::GetKeyLeft(void)
	?GetKeyMark@CFsTextViewerKeys@@QAEHXZ @ 72 NONAME ; int CFsTextViewerKeys::GetKeyMark(void)
	?GetKeyPgDown@CFsTextViewerKeys@@QAEHXZ @ 73 NONAME ; int CFsTextViewerKeys::GetKeyPgDown(void)
	?GetKeyPgUp@CFsTextViewerKeys@@QAEHXZ @ 74 NONAME ; int CFsTextViewerKeys::GetKeyPgUp(void)
	?GetKeyRight@CFsTextViewerKeys@@QAEHXZ @ 75 NONAME ; int CFsTextViewerKeys::GetKeyRight(void)
	?GetKeyScrollDown@CFsTextViewerKeys@@QAEHXZ @ 76 NONAME ; int CFsTextViewerKeys::GetKeyScrollDown(void)
	?GetKeyScrollUp@CFsTextViewerKeys@@QAEHXZ @ 77 NONAME ; int CFsTextViewerKeys::GetKeyScrollUp(void)
	?GetKeyUp@CFsTextViewerKeys@@QAEHXZ @ 78 NONAME ; int CFsTextViewerKeys::GetKeyUp(void)
	?GetLastDisplayedLine@CFsTextViewer@@QAEHXZ @ 79 NONAME ; int CFsTextViewer::GetLastDisplayedLine(void)
	?GetLineNumber@CFsTextViewer@@QAEHH@Z @ 80 NONAME ; int CFsTextViewer::GetLineNumber(int)
	?GetMarkedArea@CFsTextViewer@@QAEXAAH0@Z @ 81 NONAME ; void CFsTextViewer::GetMarkedArea(int &, int &)
	?GetMarkedItemsL@CFsTreeList@@QBEXAAV?$RArray@H@@@Z @ 82 NONAME ; void CFsTreeList::GetMarkedItemsL(class RArray<int> &) const
	?GetNumberOfExpandAreas@CFsRichText@@QAEHXZ @ 83 NONAME ; int CFsRichText::GetNumberOfExpandAreas(void)
	?GetNumberOfHotSpotAreas@CFsRichText@@QAEHXZ @ 84 NONAME ; int CFsRichText::GetNumberOfHotSpotAreas(void)
	?GetNumberOfPicture@CFsRichText@@QAEHXZ @ 85 NONAME ; int CFsRichText::GetNumberOfPicture(void)
	?GetOriginalSizeInTwips@CMyPicture@@UBEXAAVTSize@@@Z @ 86 NONAME ; void CMyPicture::GetOriginalSizeInTwips(class TSize &) const
	?GetPictureAreaL@CFsRichText@@QAE?AVTRichTextPictureArea@@H@Z @ 87 NONAME ; class TRichTextPictureArea CFsRichText::GetPictureAreaL(int)
	?GetScrollTime@CFsTreeList@@QAEXAAHAAN@Z @ 88 NONAME ; void CFsTreeList::GetScrollTime(int &, double &)
	?GetStatusLayout@CFsTextViewer@@QAEPAVCAlfLayout@@XZ @ 89 NONAME ; class CAlfLayout * CFsTextViewer::GetStatusLayout(void)
	?GetTotalLines@CFsTextViewer@@QAEHXZ @ 90 NONAME ; int CFsTextViewer::GetTotalLines(void)
	?GetVisibleFocusedHotspotLine@CFsTextViewer@@QBEHAAH@Z @ 91 NONAME ; int CFsTextViewer::GetVisibleFocusedHotspotLine(int &) const
	?HasScrollBars@CFsTreeList@@QBE?AW4TFsTreeListScrollbars@1@XZ @ 92 NONAME ; enum CFsTreeList::TFsTreeListScrollbars CFsTreeList::HasScrollBars(void) const
	?Height@CFsControlBar@@QBEHXZ @ 93 NONAME ; int CFsControlBar::Height(void) const
	?Hide@CFsControlButtonVisualiser@@UAEXXZ @ 94 NONAME ; void CFsControlButtonVisualiser::Hide(void)
	?Hide@CFsTextViewer@@QAEXXZ @ 95 NONAME ; void CFsTextViewer::Hide(void)
	?HideActionButtonFromCurrentHighlightedHotspot@CFsTextViewer@@QAEXXZ @ 96 NONAME ; void CFsTextViewer::HideActionButtonFromCurrentHighlightedHotspot(void)
	?HideListL@CFsTreeList@@QAEXHH@Z @ 97 NONAME ; void CFsTreeList::HideListL(int, int)
	?Indentation@CFsTreeList@@QBEHXZ @ 98 NONAME ; int CFsTreeList::Indentation(void) const
	?InitializeL@CFsControlButtonVisualiser@@UAEXAAVCFsControlButtonModel@@@Z @ 99 NONAME ; void CFsControlButtonVisualiser::InitializeL(class CFsControlButtonModel &)
	?InsertItemL@CFsTreeList@@QAEHAAVMFsTreeItemData@@AAVMFsTreeItemVisualizer@@HHH@Z @ 100 NONAME ; int CFsTreeList::InsertItemL(class MFsTreeItemData &, class MFsTreeItemVisualizer &, int, int, int)
	?InsertNodeL@CFsTreeList@@QAEHAAVMFsTreeItemData@@AAVMFsTreeNodeVisualizer@@HHH@Z @ 101 NONAME ; int CFsTreeList::InsertNodeL(class MFsTreeItemData &, class MFsTreeNodeVisualizer &, int, int, int)
	?IsEmpty@CFsTreeList@@QBEHH@Z @ 102 NONAME ; int CFsTreeList::IsEmpty(int) const
	?IsExpanded@CFsTreeList@@QAEHH@Z @ 103 NONAME ; int CFsTreeList::IsExpanded(int)
	?IsFocused@CFsTreeList@@QBEHXZ @ 104 NONAME ; int CFsTreeList::IsFocused(void) const
	?IsItemsAlwaysExtended@CFsTreeList@@QAEHXZ @ 105 NONAME ; int CFsTreeList::IsItemsAlwaysExtended(void)
	?IsMarked@CFsTreeList@@QBEHH@Z @ 106 NONAME ; int CFsTreeList::IsMarked(int) const
	?IsMirrored@CFsLayoutManager@@SAHXZ @ 107 NONAME ; int CFsLayoutManager::IsMirrored(void)
	?IsNode@CFsTreeList@@QBEHH@Z @ 108 NONAME ; int CFsTreeList::IsNode(int) const
	?IsScrollbarVisible@CFsAlfScrollbarLayout@@QAEHW4TFsScrollbar@@@Z @ 109 NONAME ; int CFsAlfScrollbarLayout::IsScrollbarVisible(enum TFsScrollbar)
	?ItemData@CFsTreeList@@QBEAAVMFsTreeItemData@@H@Z @ 110 NONAME ; class MFsTreeItemData & CFsTreeList::ItemData(int) const
	?ItemMenu@CFsTreeList@@QAEPAV1@H@Z @ 111 NONAME ; class CFsTreeList * CFsTreeList::ItemMenu(int)
	?ItemVisualizer@CFsTreeList@@QBEAAVMFsTreeItemVisualizer@@H@Z @ 112 NONAME ; class MFsTreeItemVisualizer & CFsTreeList::ItemVisualizer(int) const
	?Keys@CFsTextViewer@@QAEPAVCFsTextViewerKeys@@XZ @ 113 NONAME ; class CFsTextViewerKeys * CFsTextViewer::Keys(void)
	?LayoutMetricsPosition@CFsLayoutManager@@SAHABVTRect@@W4TFsLayoutMetrics@1@AAVTPoint@@HHH@Z @ 114 NONAME ; int CFsLayoutManager::LayoutMetricsPosition(class TRect const &, enum CFsLayoutManager::TFsLayoutMetrics, class TPoint &, int, int, int)
	?LayoutMetricsRect@CFsLayoutManager@@SAHABVTRect@@W4TFsLayoutMetrics@1@AAV2@HHH@Z @ 115 NONAME ; int CFsLayoutManager::LayoutMetricsRect(class TRect const &, enum CFsLayoutManager::TFsLayoutMetrics, class TRect &, int, int, int)
	?LayoutMetricsSize@CFsLayoutManager@@SAHABVTRect@@W4TFsLayoutMetrics@1@AAVTSize@@HHH@Z @ 116 NONAME ; int CFsLayoutManager::LayoutMetricsSize(class TRect const &, enum CFsLayoutManager::TFsLayoutMetrics, class TSize &, int, int, int)
	?LayoutMetricsText@CFsLayoutManager@@SAHABVTRect@@W4TFsLayoutMetrics@1@AAUTFsText@1@HH@Z @ 117 NONAME ; int CFsLayoutManager::LayoutMetricsText(class TRect const &, enum CFsLayoutManager::TFsLayoutMetrics, struct CFsLayoutManager::TFsText &, int, int)
	?LayoutSize@CFsAlfScrollbarLayout@@QAE?AUTAlfRealPoint@@XZ @ 118 NONAME ; struct TAlfRealPoint CFsAlfScrollbarLayout::LayoutSize(void)
	?Level@CFsTreeList@@QBEIH@Z @ 119 NONAME ; unsigned int CFsTreeList::Level(int) const
	?LoopingType@CFsTreeList@@QBE?AW4TFsTreeListLoopingType@@XZ @ 120 NONAME ; enum TFsTreeListLoopingType CFsTreeList::LoopingType(void) const
	?MarkItemL@CFsTreeList@@QAEXHH@Z @ 121 NONAME ; void CFsTreeList::MarkItemL(int, int)
	?MarkType@CFsTreeList@@QBE?AW4TFsTreeListMarkType@1@XZ @ 122 NONAME ; enum CFsTreeList::TFsTreeListMarkType CFsTreeList::MarkType(void) const
	?MoveItemL@CFsTreeList@@QAEXHHH@Z @ 123 NONAME ; void CFsTreeList::MoveItemL(int, int, int)
	?NewL@CFsActionMenu@@SAPAV1@AAVCAlfDisplay@@H@Z @ 124 NONAME ; class CFsActionMenu * CFsActionMenu::NewL(class CAlfDisplay &, int)
	?NewL@CFsControlBar@@SAPAV1@AAVCAlfEnv@@@Z @ 125 NONAME ; class CFsControlBar * CFsControlBar::NewL(class CAlfEnv &)
	?NewL@CFsMultiLineItemData@@SAPAV1@XZ @ 126 NONAME ; class CFsMultiLineItemData * CFsMultiLineItemData::NewL(void)
	?NewL@CFsMultiLineItemVisualizer@@SAPAV1@AAVCAlfControl@@@Z @ 127 NONAME ; class CFsMultiLineItemVisualizer * CFsMultiLineItemVisualizer::NewL(class CAlfControl &)
	?NewL@CFsRichText@@SAPAV1@ABVCStreamStore@@VTStreamId@@PBVCParaFormatLayer@@PBVCCharFormatLayer@@PAVMPictureFactory@@PAVMRichTextStoreResolver@@PAVMTextFieldFactory@@W4TDocumentStorage@CEditableText@@@Z @ 128 NONAME ; class CFsRichText * CFsRichText::NewL(class CStreamStore const &, class TStreamId, class CParaFormatLayer const *, class CCharFormatLayer const *, class MPictureFactory *, class MRichTextStoreResolver *, class MTextFieldFactory *, enum CEditableText::TDocumentStorage)
	?NewL@CFsRichText@@SAPAV1@ABVCStreamStore@@VTStreamId@@PBVCParaFormatLayer@@PBVCCharFormatLayer@@PAVMTextFieldFactory@@W4TDocumentStorage@CEditableText@@@Z @ 129 NONAME ; class CFsRichText * CFsRichText::NewL(class CStreamStore const &, class TStreamId, class CParaFormatLayer const *, class CCharFormatLayer const *, class MTextFieldFactory *, enum CEditableText::TDocumentStorage)
	?NewL@CFsRichText@@SAPAV1@PBVCParaFormatLayer@@PBVCCharFormatLayer@@ABVCStyleList@@W4TDocumentStorage@CEditableText@@HW4TParaType@CRichText@@@Z @ 130 NONAME ; class CFsRichText * CFsRichText::NewL(class CParaFormatLayer const *, class CCharFormatLayer const *, class CStyleList const &, enum CEditableText::TDocumentStorage, int, enum CRichText::TParaType)
	?NewL@CFsRichText@@SAPAV1@PBVCParaFormatLayer@@PBVCCharFormatLayer@@W4TDocumentStorage@CEditableText@@HW4TParaType@CRichText@@@Z @ 131 NONAME ; class CFsRichText * CFsRichText::NewL(class CParaFormatLayer const *, class CCharFormatLayer const *, enum CEditableText::TDocumentStorage, int, enum CRichText::TParaType)
	?NewL@CFsSeparatorData@@SAPAV1@XZ @ 132 NONAME ; class CFsSeparatorData * CFsSeparatorData::NewL(void)
	?NewL@CFsSeparatorVisualizer@@SAPAV1@AAVCAlfControl@@@Z @ 133 NONAME ; class CFsSeparatorVisualizer * CFsSeparatorVisualizer::NewL(class CAlfControl &)
	?NewL@CFsSmileyDictionary@@SAPAV1@XZ @ 134 NONAME ; class CFsSmileyDictionary * CFsSmileyDictionary::NewL(void)
	?NewL@CFsTextViewer@@SAPAV1@AAVCAlfEnv@@@Z @ 135 NONAME ; class CFsTextViewer * CFsTextViewer::NewL(class CAlfEnv &)
	?NewL@CFsTextViewerKeys@@SAPAV1@XZ @ 136 NONAME ; class CFsTextViewerKeys * CFsTextViewerKeys::NewL(void)
	?NewL@CFsTextViewerWatermark@@SAPAV1@AAVCAlfTexture@@M@Z @ 137 NONAME ; class CFsTextViewerWatermark * CFsTextViewerWatermark::NewL(class CAlfTexture &, float)
	?NewL@CFsTree@@SAPAV1@AAVMFsTreeObserver@@AAVMFsTreeItemData@@AAVMFsTreeNodeVisualizer@@@Z @ 138 NONAME ; class CFsTree * CFsTree::NewL(class MFsTreeObserver &, class MFsTreeItemData &, class MFsTreeNodeVisualizer &)
	?NewL@CFsTreeControl@@SAPAV1@AAVCAlfEnv@@AAVCFsTree@@AAVMFsTreeVisualizer@@@Z @ 139 NONAME ; class CFsTreeControl * CFsTreeControl::NewL(class CAlfEnv &, class CFsTree &, class MFsTreeVisualizer &)
	?NewL@CFsTreeItem@@SAPAV1@AAVCFsTreeNode@@AAVMFsTreeItemData@@AAVMFsTreeItemVisualizer@@@Z @ 140 NONAME ; class CFsTreeItem * CFsTreeItem::NewL(class CFsTreeNode &, class MFsTreeItemData &, class MFsTreeItemVisualizer &)
	?NewL@CFsTreeList@@SAPAV1@AAVCFsTreeVisualizerBase@@AAVCAlfEnv@@@Z @ 141 NONAME ; class CFsTreeList * CFsTreeList::NewL(class CFsTreeVisualizerBase &, class CAlfEnv &)
	?NewL@CFsTreeNode@@SAPAV1@AAV1@AAVMFsTreeItemData@@AAVMFsTreeNodeVisualizer@@@Z @ 142 NONAME ; class CFsTreeNode * CFsTreeNode::NewL(class CFsTreeNode &, class MFsTreeItemData &, class MFsTreeNodeVisualizer &)
	?NewL@CFsTreePlainOneLineItemData@@SAPAV1@XZ @ 143 NONAME ; class CFsTreePlainOneLineItemData * CFsTreePlainOneLineItemData::NewL(void)
	?NewL@CFsTreePlainOneLineItemVisualizer@@SAPAV1@AAVCAlfControl@@@Z @ 144 NONAME ; class CFsTreePlainOneLineItemVisualizer * CFsTreePlainOneLineItemVisualizer::NewL(class CAlfControl &)
	?NewL@CFsTreePlainOneLineNodeData@@SAPAV1@XZ @ 145 NONAME ; class CFsTreePlainOneLineNodeData * CFsTreePlainOneLineNodeData::NewL(void)
	?NewL@CFsTreePlainOneLineNodeVisualizer@@SAPAV1@AAVCAlfControl@@@Z @ 146 NONAME ; class CFsTreePlainOneLineNodeVisualizer * CFsTreePlainOneLineNodeVisualizer::NewL(class CAlfControl &)
	?NewL@CFsTreePlainRootVisualizer@@SAPAV1@AAVCAlfControl@@@Z @ 147 NONAME ; class CFsTreePlainRootVisualizer * CFsTreePlainRootVisualizer::NewL(class CAlfControl &)
	?NewL@CFsTreePlainTwoLineItemData@@SAPAV1@XZ @ 148 NONAME ; class CFsTreePlainTwoLineItemData * CFsTreePlainTwoLineItemData::NewL(void)
	?NewL@CFsTreePlainTwoLineItemVisualizer@@SAPAV1@AAVCAlfControl@@@Z @ 149 NONAME ; class CFsTreePlainTwoLineItemVisualizer * CFsTreePlainTwoLineItemVisualizer::NewL(class CAlfControl &)
	?NewL@CFsTreeRichItemData@@SAPAV1@PAVCFsRichText@@@Z @ 150 NONAME ; class CFsTreeRichItemData * CFsTreeRichItemData::NewL(class CFsRichText *)
	?NewL@CFsTreeRichItemVisualizer@@SAPAV1@AAVCAlfControl@@AAVCFsAlfTextStyleManager@@@Z @ 151 NONAME ; class CFsTreeRichItemVisualizer * CFsTreeRichItemVisualizer::NewL(class CAlfControl &, class CFsAlfTextStyleManager &)
	?NewL@CFsTreeVisualizerBase@@SAPAV1@PAVCAlfControl@@AAVCAlfLayout@@H@Z @ 152 NONAME ; class CFsTreeVisualizerBase * CFsTreeVisualizerBase::NewL(class CAlfControl *, class CAlfLayout &, int)
	?NewLC@CFsControlBar@@SAPAV1@AAVCAlfEnv@@@Z @ 153 NONAME ; class CFsControlBar * CFsControlBar::NewLC(class CAlfEnv &)
	?NewLC@CFsTreeItem@@SAPAV1@AAVCFsTreeNode@@AAVMFsTreeItemData@@AAVMFsTreeItemVisualizer@@@Z @ 154 NONAME ; class CFsTreeItem * CFsTreeItem::NewLC(class CFsTreeNode &, class MFsTreeItemData &, class MFsTreeItemVisualizer &)
	?OfferEventL@CFsTreeControl@@UAEHABVTAlfEvent@@@Z @ 155 NONAME ; int CFsTreeControl::OfferEventL(class TAlfEvent const &)
	?Parent@CFsTreeList@@QBEHH@Z @ 156 NONAME ; int CFsTreeList::Parent(int) const
	?PrepareDrawDimmed@CFsControlButtonVisualiser@@MAEXXZ @ 157 NONAME ; void CFsControlButtonVisualiser::PrepareDrawDimmed(void)
	?PrepareDrawFocused@CFsControlButtonVisualiser@@MAEXXZ @ 158 NONAME ; void CFsControlButtonVisualiser::PrepareDrawFocused(void)
	?PrepareDrawNormal@CFsControlButtonVisualiser@@MAEXXZ @ 159 NONAME ; void CFsControlButtonVisualiser::PrepareDrawNormal(void)
	?RangeEnd@CFsAlfScrollbarLayout@@QAEHW4TFsScrollbar@@@Z @ 160 NONAME ; int CFsAlfScrollbarLayout::RangeEnd(enum TFsScrollbar)
	?RangeStart@CFsAlfScrollbarLayout@@QAEHW4TFsScrollbar@@@Z @ 161 NONAME ; int CFsAlfScrollbarLayout::RangeStart(enum TFsScrollbar)
	?Rect@CFsTextViewerWatermark@@QAE?AVTRect@@XZ @ 162 NONAME ; class TRect CFsTextViewerWatermark::Rect(void)
	?Refresh@CFsControlButtonVisualiser@@UAEXVTPoint@@@Z @ 163 NONAME ; void CFsControlButtonVisualiser::Refresh(class TPoint)
	?Refresh@CFsControlButtonVisualiser@@UAEXXZ @ 164 NONAME ; void CFsControlButtonVisualiser::Refresh(void)
	?ReloadPicturesL@CFsTextViewer@@QAEXH@Z @ 165 NONAME ; void CFsTextViewer::ReloadPicturesL(int)
	?ReloadTextL@CFsTextViewer@@QAEXXZ @ 166 NONAME ; void CFsTextViewer::ReloadTextL(void)
	?RemoveAllL@CFsTreeList@@QAEXXZ @ 167 NONAME ; void CFsTreeList::RemoveAllL(void)
	?RemoveButtonL@CFsControlBar@@QAEHH@Z @ 168 NONAME ; int CFsControlBar::RemoveButtonL(int)
	?RemoveChildrenL@CFsTreeList@@QAEXH@Z @ 169 NONAME ; void CFsTreeList::RemoveChildrenL(int)
	?RemoveEndLinesL@CFsTextViewer@@QAEXH@Z @ 170 NONAME ; void CFsTextViewer::RemoveEndLinesL(int)
	?RemoveL@CFsTreeList@@QAEXH@Z @ 171 NONAME ; void CFsTreeList::RemoveL(int)
	?RemoveObserver@CFsControlBar@@QAEXAAVMFsControlBarObserver@@@Z @ 172 NONAME ; void CFsControlBar::RemoveObserver(class MFsControlBarObserver &)
	?RemoveObserver@CFsTreeList@@QAEXAAVMFsTreeListObserver@@@Z @ 173 NONAME ; void CFsTreeList::RemoveObserver(class MFsTreeListObserver &)
	?RemoveStatusLayout@CFsTextViewer@@QAEXXZ @ 174 NONAME ; void CFsTextViewer::RemoveStatusLayout(void)
	?ReplaceTextL@CFsTextViewer@@QAEXPAVCFsRichText@@PAVCFsSmileyDictionary@@@Z @ 175 NONAME ; void CFsTextViewer::ReplaceTextL(class CFsRichText *, class CFsSmileyDictionary *)
	?Reset@CFsRichText@@UAEXXZ @ 176 NONAME ; void CFsRichText::Reset(void)
	?RootLayout@CFsTextViewer@@QAEPAVCAlfLayout@@XZ @ 177 NONAME ; class CAlfLayout * CFsTextViewer::RootLayout(void)
	?ScrollbarPos@CFsAlfScrollbarLayout@@QAEHW4TFsScrollbar@@@Z @ 178 NONAME ; int CFsAlfScrollbarLayout::ScrollbarPos(enum TFsScrollbar)
	?ScrollbarVisibility@CFsTreeList@@QBE?AW4TFsScrollbarVisibility@@XZ @ 179 NONAME ; enum TFsScrollbarVisibility CFsTreeList::ScrollbarVisibility(void) const
	?SetActionButton@CFsTextViewer@@QAEXAAVCAlfTexture@@M@Z @ 180 NONAME ; void CFsTextViewer::SetActionButton(class CAlfTexture &, float)
	?SetActionButtonMargin@CFsTextViewer@@QAEXM@Z @ 181 NONAME ; void CFsTextViewer::SetActionButtonMargin(float)
	?SetActionButtonSize@CFsTextViewer@@QAEXMM@Z @ 182 NONAME ; void CFsTextViewer::SetActionButtonSize(float, float)
	?SetBackgroundBrushL@CFsTreeVisualizerBase@@QAEXPAVCAlfBrush@@@Z @ 183 NONAME ; void CFsTreeVisualizerBase::SetBackgroundBrushL(class CAlfBrush *)
	?SetBackgroundColor@CFsControlBar@@QAEXABVTRgb@@@Z @ 184 NONAME ; void CFsControlBar::SetBackgroundColor(class TRgb const &)
	?SetBackgroundColor@CFsControlButtonVisualiser@@UAEXABVTRgb@@@Z @ 185 NONAME ; void CFsControlButtonVisualiser::SetBackgroundColor(class TRgb const &)
	?SetBackgroundColorL@CFsTextViewer@@QAEXABVTRgb@@@Z @ 186 NONAME ; void CFsTextViewer::SetBackgroundColorL(class TRgb const &)
	?SetBackgroundColorL@CFsTreeVisualizerBase@@QAEXVTRgb@@@Z @ 187 NONAME ; void CFsTreeVisualizerBase::SetBackgroundColorL(class TRgb)
	?SetBackgroundImageL@CFsControlBar@@QAEXAAVCAlfTexture@@@Z @ 188 NONAME ; void CFsControlBar::SetBackgroundImageL(class CAlfTexture &)
	?SetBackgroundImageL@CFsControlButtonVisualiser@@UAEXPAVCAlfImageBrush@@@Z @ 189 NONAME ; void CFsControlButtonVisualiser::SetBackgroundImageL(class CAlfImageBrush *)
	?SetBackgroundImageL@CFsTextViewer@@QAEXAAVCAlfTexture@@@Z @ 190 NONAME ; void CFsTextViewer::SetBackgroundImageL(class CAlfTexture &)
	?SetBackgroundOpacity@CFsTextViewer@@QAEXABVTAlfTimedValue@@@Z @ 191 NONAME ; void CFsTextViewer::SetBackgroundOpacity(class TAlfTimedValue const &)
	?SetBackgroundTextureL@CFsTreeVisualizerBase@@QAEXAAVCAlfTexture@@@Z @ 192 NONAME ; void CFsTreeVisualizerBase::SetBackgroundTextureL(class CAlfTexture &)
	?SetBorderL@CFsActionMenu@@UAEXHPAVCAlfTexture@@@Z @ 193 NONAME ; void CFsActionMenu::SetBorderL(int, class CAlfTexture *)
	?SetBorderL@CFsTreeList@@UAEXHPAVCAlfTexture@@@Z @ 194 NONAME ; void CFsTreeList::SetBorderL(int, class CAlfTexture *)
	?SetCurrentHotspotByCharL@CFsTextViewer@@QAEXH@Z @ 195 NONAME ; void CFsTextViewer::SetCurrentHotspotByCharL(int)
	?SetCurrentHotspotByOrderL@CFsTextViewer@@QAEXHH@Z @ 196 NONAME ; void CFsTextViewer::SetCurrentHotspotByOrderL(int, int)
	?SetCursorDelay@CFsTextViewer@@QAEXH@Z @ 197 NONAME ; void CFsTextViewer::SetCursorDelay(int)
	?SetCustomKeys@CFsTextViewer@@QAEXPAVCFsTextViewerKeys@@@Z @ 198 NONAME ; void CFsTextViewer::SetCustomKeys(class CFsTextViewerKeys *)
	?SetDirectTouchMode@CFsTreeList@@QAEXH@Z @ 199 NONAME ; void CFsTreeList::SetDirectTouchMode(int)
	?SetElemAlignL@CFsControlButtonVisualiser@@UAEXW4TFsControlButtonElem@@W4TAlfAlignHorizontal@@W4TAlfAlignVertical@@@Z @ 200 NONAME ; void CFsControlButtonVisualiser::SetElemAlignL(enum TFsControlButtonElem, enum TAlfAlignHorizontal, enum TAlfAlignVertical)
	?SetExpandL@CFsRichText@@QAEHHHH@Z @ 201 NONAME ; int CFsRichText::SetExpandL(int, int, int)
	?SetFadeInEffectTime@CFsTreeList@@QAEXH@Z @ 202 NONAME ; void CFsTreeList::SetFadeInEffectTime(int)
	?SetFadeOutEffectTime@CFsTreeList@@QAEXH@Z @ 203 NONAME ; void CFsTreeList::SetFadeOutEffectTime(int)
	?SetFocusByIdL@CFsControlBar@@QAEXH@Z @ 204 NONAME ; void CFsControlBar::SetFocusByIdL(int)
	?SetFocusL@CFsControlBar@@QAEXH@Z @ 205 NONAME ; void CFsControlBar::SetFocusL(int)
	?SetFocusedItemL@CFsTreeList@@QAEXH@Z @ 206 NONAME ; void CFsTreeList::SetFocusedItemL(int)
	?SetFocusedL@CFsTreeList@@QAEXH@Z @ 207 NONAME ; void CFsTreeList::SetFocusedL(int)
	?SetHeightL@CFsControlBar@@QAEXH@Z @ 208 NONAME ; void CFsControlBar::SetHeightL(int)
	?SetHorizontalScrollbarHeight@CFsAlfScrollbarLayout@@QAEXHH@Z @ 209 NONAME ; void CFsAlfScrollbarLayout::SetHorizontalScrollbarHeight(int, int)
	?SetHotSpotL@CFsRichText@@QAEHHHH@Z @ 210 NONAME ; int CFsRichText::SetHotSpotL(int, int, int)
	?SetImageAlign@CFsControlButtonVisualiser@@MAEXPAVCAlfImageVisual@@W4TAlfAlignHorizontal@@W4TAlfAlignVertical@@@Z @ 211 NONAME ; void CFsControlButtonVisualiser::SetImageAlign(class CAlfImageVisual *, enum TAlfAlignHorizontal, enum TAlfAlignVertical)
	?SetIndentationL@CFsTreeList@@QAEXH@Z @ 212 NONAME ; void CFsTreeList::SetIndentationL(int)
	?SetItemDataL@CFsTreeList@@QAEXAAVMFsTreeItemData@@H@Z @ 213 NONAME ; void CFsTreeList::SetItemDataL(class MFsTreeItemData &, int)
	?SetItemVisualizerL@CFsTreeList@@QAEXAAVMFsTreeItemVisualizer@@H@Z @ 214 NONAME ; void CFsTreeList::SetItemVisualizerL(class MFsTreeItemVisualizer &, int)
	?SetItemsAlwaysExtendedL@CFsTreeList@@QAEXH@Z @ 215 NONAME ; void CFsTreeList::SetItemsAlwaysExtendedL(int)
	?SetKeyClick@CFsTextViewerKeys@@QAEXH@Z @ 216 NONAME ; void CFsTextViewerKeys::SetKeyClick(int)
	?SetKeyDown@CFsTextViewerKeys@@QAEXH@Z @ 217 NONAME ; void CFsTextViewerKeys::SetKeyDown(int)
	?SetKeyLeft@CFsTextViewerKeys@@QAEXH@Z @ 218 NONAME ; void CFsTextViewerKeys::SetKeyLeft(int)
	?SetKeyMark@CFsTextViewerKeys@@QAEXH@Z @ 219 NONAME ; void CFsTextViewerKeys::SetKeyMark(int)
	?SetKeyPgDown@CFsTextViewerKeys@@QAEXH@Z @ 220 NONAME ; void CFsTextViewerKeys::SetKeyPgDown(int)
	?SetKeyPgUp@CFsTextViewerKeys@@QAEXH@Z @ 221 NONAME ; void CFsTextViewerKeys::SetKeyPgUp(int)
	?SetKeyRight@CFsTextViewerKeys@@QAEXH@Z @ 222 NONAME ; void CFsTextViewerKeys::SetKeyRight(int)
	?SetKeyScrollDown@CFsTextViewerKeys@@QAEXH@Z @ 223 NONAME ; void CFsTextViewerKeys::SetKeyScrollDown(int)
	?SetKeyScrollUp@CFsTextViewerKeys@@QAEXH@Z @ 224 NONAME ; void CFsTextViewerKeys::SetKeyScrollUp(int)
	?SetKeyUp@CFsTextViewerKeys@@QAEXH@Z @ 225 NONAME ; void CFsTextViewerKeys::SetKeyUp(int)
	?SetLeftMargin@CFsTextViewer@@QAEXH@Z @ 226 NONAME ; void CFsTextViewer::SetLeftMargin(int)
	?SetLiteLineBg@CFsTextViewer@@QAEXAAVCAlfTexture@@M@Z @ 227 NONAME ; void CFsTextViewer::SetLiteLineBg(class CAlfTexture &, float)
	?SetLoopingType@CFsTreeList@@QAEXW4TFsTreeListLoopingType@@@Z @ 228 NONAME ; void CFsTreeList::SetLoopingType(enum TFsTreeListLoopingType)
	?SetMarkTypeL@CFsTreeList@@QAEXW4TFsTreeListMarkType@1@@Z @ 229 NONAME ; void CFsTreeList::SetMarkTypeL(enum CFsTreeList::TFsTreeListMarkType)
	?SetMirroring@CFsTextViewer@@QAEXH@Z @ 230 NONAME ; void CFsTextViewer::SetMirroring(int)
	?SetObserver@CFsTextViewer@@QAEXPAVMFsTextViewerObserver@@@Z @ 231 NONAME ; void CFsTextViewer::SetObserver(class MFsTextViewerObserver *)
	?SetOriginalSizeInTwips@CMyPicture@@QAEXVTSize@@@Z @ 232 NONAME ; void CMyPicture::SetOriginalSizeInTwips(class TSize)
	?SetPartBgColorL@CFsTextViewer@@QAEXHHABVTRgb@@@Z @ 233 NONAME ; void CFsTextViewer::SetPartBgColorL(int, int, class TRgb const &)
	?SetPartBgImageL@CFsTextViewer@@QAEXHHAAVCAlfTexture@@@Z @ 234 NONAME ; void CFsTextViewer::SetPartBgImageL(int, int, class CAlfTexture &)
	?SetPictureL@CFsRichText@@QAEHV?$TBuf@$0BAA@@@H@Z @ 235 NONAME ; int CFsRichText::SetPictureL(class TBuf<256>, int)
	?SetRange@CFsAlfScrollbarLayout@@QAEXHHW4TFsScrollbar@@@Z @ 236 NONAME ; void CFsAlfScrollbarLayout::SetRange(int, int, enum TFsScrollbar)
	?SetRect@CFsTextViewerWatermark@@QAEXVTRect@@@Z @ 237 NONAME ; void CFsTextViewerWatermark::SetRect(class TRect)
	?SetRightMargin@CFsTextViewer@@QAEXH@Z @ 238 NONAME ; void CFsTextViewer::SetRightMargin(int)
	?SetScrollBarsL@CFsTreeList@@QAEXW4TFsTreeListScrollbars@1@@Z @ 239 NONAME ; void CFsTreeList::SetScrollBarsL(enum CFsTreeList::TFsTreeListScrollbars)
	?SetScrollDelay@CFsTextViewer@@QAEXH@Z @ 240 NONAME ; void CFsTextViewer::SetScrollDelay(int)
	?SetScrollOffsetInLines@CFsTextViewer@@QAEXH@Z @ 241 NONAME ; void CFsTextViewer::SetScrollOffsetInLines(int)
	?SetScrollOffsetInPx@CFsTextViewer@@QAEXH@Z @ 242 NONAME ; void CFsTextViewer::SetScrollOffsetInPx(int)
	?SetScrollTime@CFsTreeList@@QAEXHN@Z @ 243 NONAME ; void CFsTreeList::SetScrollTime(int, double)
	?SetScrollbarImagesL@CFsAlfScrollbarLayout@@QAEXPAVCAlfImageBrush@@0W4TFsScrollbar@@@Z @ 244 NONAME ; void CFsAlfScrollbarLayout::SetScrollbarImagesL(class CAlfImageBrush *, class CAlfImageBrush *, enum TFsScrollbar)
	?SetScrollbarPos@CFsAlfScrollbarLayout@@QAEXHW4TFsScrollbar@@@Z @ 245 NONAME ; void CFsAlfScrollbarLayout::SetScrollbarPos(int, enum TFsScrollbar)
	?SetScrollbarVisibilityL@CFsTreeList@@QAEXW4TFsScrollbarVisibility@@@Z @ 246 NONAME ; void CFsTreeList::SetScrollbarVisibilityL(enum TFsScrollbarVisibility)
	?SetSecondaryTextAlign@CFsTreePlainTwoLineItemVisualizer@@UAEXW4TAlfAlignHorizontal@@@Z @ 247 NONAME ; void CFsTreePlainTwoLineItemVisualizer::SetSecondaryTextAlign(enum TAlfAlignHorizontal)
	?SetSelectorImageL@CFsControlBar@@QAEXPAVCAlfBrush@@M@Z @ 248 NONAME ; void CFsControlBar::SetSelectorImageL(class CAlfBrush *, float)
	?SetSelectorTransitionTimeL@CFsControlBar@@QAEXH@Z @ 249 NONAME ; void CFsControlBar::SetSelectorTransitionTimeL(int)
	?SetShadowL@CFsTreeList@@QAEXH@Z @ 250 NONAME ; void CFsTreeList::SetShadowL(int)
	?SetSlideInDirection@CFsTreeList@@QAEXW4TFsSlideEffect@MFsTreeVisualizer@@@Z @ 251 NONAME ; void CFsTreeList::SetSlideInDirection(enum MFsTreeVisualizer::TFsSlideEffect)
	?SetSlideInDuration@CFsTreeList@@QAEXH@Z @ 252 NONAME ; void CFsTreeList::SetSlideInDuration(int)
	?SetSlideOutDirection@CFsTreeList@@QAEXW4TFsSlideEffect@MFsTreeVisualizer@@@Z @ 253 NONAME ; void CFsTreeList::SetSlideOutDirection(enum MFsTreeVisualizer::TFsSlideEffect)
	?SetSlideOutDuration@CFsTreeList@@QAEXH@Z @ 254 NONAME ; void CFsTreeList::SetSlideOutDuration(int)
	?SetSmileySize@CFsTextViewer@@QAEXVTSize@@@Z @ 255 NONAME ; void CFsTextViewer::SetSmileySize(class TSize)
	?SetTextAlign@CFsControlButtonVisualiser@@MAEXPAVCAlfTextVisual@@W4TAlfAlignHorizontal@@W4TAlfAlignVertical@@@Z @ 256 NONAME ; void CFsControlButtonVisualiser::SetTextAlign(class CAlfTextVisual *, enum TAlfAlignHorizontal, enum TAlfAlignVertical)
	?SetTextFontL@CFsControlButtonVisualiser@@UAEXABVTFontSpec@@@Z @ 257 NONAME ; void CFsControlButtonVisualiser::SetTextFontL(class TFontSpec const &)
	?SetTextHeight@CFsControlButtonVisualiser@@UAEXH@Z @ 258 NONAME ; void CFsControlButtonVisualiser::SetTextHeight(int)
	?SetTextL@CFsTextViewer@@QAEXPAVCFsRichText@@PAVCFsSmileyDictionary@@@Z @ 259 NONAME ; void CFsTextViewer::SetTextL(class CFsRichText *, class CFsSmileyDictionary *)
	?SetTextMarqueeCycleStartDelay@CFsTreeList@@QAEXH@Z @ 260 NONAME ; void CFsTreeList::SetTextMarqueeCycleStartDelay(int)
	?SetTextMarqueeRepetitions@CFsTreeList@@QAEXH@Z @ 261 NONAME ; void CFsTreeList::SetTextMarqueeRepetitions(int)
	?SetTextMarqueeSpeed@CFsTreeList@@QAEXH@Z @ 262 NONAME ; void CFsTreeList::SetTextMarqueeSpeed(int)
	?SetTextMarqueeStartDelay@CFsTreeList@@QAEXH@Z @ 263 NONAME ; void CFsTreeList::SetTextMarqueeStartDelay(int)
	?SetTextMarqueeType@CFsTreeList@@QAEXW4TFsTextMarqueeType@@@Z @ 264 NONAME ; void CFsTreeList::SetTextMarqueeType(enum TFsTextMarqueeType)
	?SetThumbSpan@CFsAlfScrollbarLayout@@QAEXHW4TFsScrollbar@@@Z @ 265 NONAME ; void CFsAlfScrollbarLayout::SetThumbSpan(int, enum TFsScrollbar)
	?SetTreeVisualizer@CFsTreeList@@QAEXAAVCFsTreeVisualizerBase@@@Z @ 266 NONAME ; void CFsTreeList::SetTreeVisualizer(class CFsTreeVisualizerBase &)
	?SetVerticalScrollbarWidth@CFsAlfScrollbarLayout@@QAEXHH@Z @ 267 NONAME ; void CFsAlfScrollbarLayout::SetVerticalScrollbarWidth(int, int)
	?SetVisibilityMode@CFsAlfScrollbarLayout@@QAEXW4TFsScrollbarVisibility@@W4TFsScrollbar@@@Z @ 268 NONAME ; void CFsAlfScrollbarLayout::SetVisibilityMode(enum TFsScrollbarVisibility, enum TFsScrollbar)
	?SetWatermarkL@CFsTextViewer@@QAEXPAVCFsTextViewerWatermark@@@Z @ 269 NONAME ; void CFsTextViewer::SetWatermarkL(class CFsTextViewerWatermark *)
	?SetWatermarkL@CFsTreeVisualizerBase@@QAEXPAVCAlfTexture@@@Z @ 270 NONAME ; void CFsTreeVisualizerBase::SetWatermarkL(class CAlfTexture *)
	?SetWatermarkOpacity@CFsTreeVisualizerBase@@QAEXM@Z @ 271 NONAME ; void CFsTreeVisualizerBase::SetWatermarkOpacity(float)
	?SetWatermarkPos@CFsTreeVisualizerBase@@QAEXABVTPoint@@@Z @ 272 NONAME ; void CFsTreeVisualizerBase::SetWatermarkPos(class TPoint const &)
	?SetWatermarkSize@CFsTreeVisualizerBase@@QAEXABVTSize@@@Z @ 273 NONAME ; void CFsTreeVisualizerBase::SetWatermarkSize(class TSize const &)
	?SetWidthL@CFsControlBar@@QAEXH@Z @ 274 NONAME ; void CFsControlBar::SetWidthL(int)
	?Show@CFsTextViewer@@QAEXXZ @ 275 NONAME ; void CFsTextViewer::Show(void)
	?ShowActionButtonForCurrentHighlightedHotspotL@CFsTextViewer@@QAEXXZ @ 276 NONAME ; void CFsTextViewer::ShowActionButtonForCurrentHighlightedHotspotL(void)
	?ShowL@CFsControlButtonVisualiser@@UAEXXZ @ 277 NONAME ; void CFsControlButtonVisualiser::ShowL(void)
	?ShowListL@CFsTreeList@@QAEXHH@Z @ 278 NONAME ; void CFsTreeList::ShowListL(int, int)
	?SlideInDirection@CFsTreeList@@QBE?AW4TFsSlideEffect@MFsTreeVisualizer@@XZ @ 279 NONAME ; enum MFsTreeVisualizer::TFsSlideEffect CFsTreeList::SlideInDirection(void) const
	?SlideInDuration@CFsTreeList@@QBEHXZ @ 280 NONAME ; int CFsTreeList::SlideInDuration(void) const
	?SlideOutDirection@CFsTreeList@@QBE?AW4TFsSlideEffect@MFsTreeVisualizer@@XZ @ 281 NONAME ; enum MFsTreeVisualizer::TFsSlideEffect CFsTreeList::SlideOutDirection(void) const
	?SlideOutDuration@CFsTreeList@@QBEHXZ @ 282 NONAME ; int CFsTreeList::SlideOutDuration(void) const
	?Smileys@CFsTextViewer@@QAEHXZ @ 283 NONAME ; int CFsTextViewer::Smileys(void)
	?Text@CFsTreeRichItemData@@QBEABVCFsRichText@@XZ @ 284 NONAME ; class CFsRichText const & CFsTreeRichItemData::Text(void) const
	?TextMarqueeCycleStartDelay@CFsTreeList@@QBEHXZ @ 285 NONAME ; int CFsTreeList::TextMarqueeCycleStartDelay(void) const
	?TextMarqueeRepetitions@CFsTreeList@@QBEHXZ @ 286 NONAME ; int CFsTreeList::TextMarqueeRepetitions(void) const
	?TextMarqueeSpeed@CFsTreeList@@QBEHXZ @ 287 NONAME ; int CFsTreeList::TextMarqueeSpeed(void) const
	?TextMarqueeStartDelay@CFsTreeList@@QBEHXZ @ 288 NONAME ; int CFsTreeList::TextMarqueeStartDelay(void) const
	?TextMarqueeType@CFsTreeList@@QBE?AW4TFsTextMarqueeType@@XZ @ 289 NONAME ; enum TFsTextMarqueeType CFsTreeList::TextMarqueeType(void) const
	?TextStyleManager@CFsTreeList@@QBEAAVCFsAlfTextStyleManager@@XZ @ 290 NONAME ; class CFsAlfTextStyleManager & CFsTreeList::TextStyleManager(void) const
	?TextureLoadingCompleted@CFsControlButtonVisualiser@@UAEXAAVCAlfTexture@@HH@Z @ 291 NONAME ; void CFsControlButtonVisualiser::TextureLoadingCompleted(class CAlfTexture &, int, int)
	?ThumbSpan@CFsAlfScrollbarLayout@@QAEHW4TFsScrollbar@@@Z @ 292 NONAME ; int CFsAlfScrollbarLayout::ThumbSpan(enum TFsScrollbar)
	?TreeControl@CFsTreeList@@QBEPAVCAlfControl@@XZ @ 293 NONAME ; class CAlfControl * CFsTreeList::TreeControl(void) const
	?TreeVisualizer@CFsTreeList@@QBEAAVCFsTreeVisualizerBase@@XZ @ 294 NONAME ; class CFsTreeVisualizerBase & CFsTreeList::TreeVisualizer(void) const
	?DisableKineticScrolling@CFsTreeList@@QAEXH@Z @ 295 NONAME ; void CFsTreeList::DisableKineticScrolling(int)
	?MakeSelectorVisible@CFsControlBar@@QAEXHH@Z @ 296 NONAME ; void CFsControlBar::MakeSelectorVisible(int, int)
	?MakeSelectorVisibleL@CFsTreeVisualizerBase@@QAEXH@Z @ 297 NONAME ; void CFsTreeVisualizerBase::MakeSelectorVisibleL(int)
	?TreeVisualizerEventL@CFsTreeList@@UBEXW4TFsTreeVisualizerEvent@MFsTreeVisualizerObserver@@HABVTPoint@@@Z @ 298 NONAME ; void CFsTreeList::TreeVisualizerEventL(enum MFsTreeVisualizerObserver::TFsTreeVisualizerEvent, int, class TPoint const &) const
	?Update@CFsAlfScrollbarLayout@@QAEXH@Z @ 299 NONAME ; void CFsAlfScrollbarLayout::Update(int)
	?UpdateButtonSize@CFsControlButtonVisualiser@@UAEXXZ @ 300 NONAME ; void CFsControlButtonVisualiser::UpdateButtonSize(void)
	?UpdateElementL@CFsControlButtonVisualiser@@UAEXW4TFsControlButtonElem@@@Z @ 301 NONAME ; void CFsControlButtonVisualiser::UpdateElementL(enum TFsControlButtonElem)
	?UpdateElementsSizeL@CFsControlButtonVisualiser@@MAEXW4TFsControlButtonType@@@Z @ 302 NONAME ; void CFsControlButtonVisualiser::UpdateElementsSizeL(enum TFsControlButtonType)
	?UpdateStatusLayout@CFsTextViewer@@QAEXXZ @ 303 NONAME ; void CFsTextViewer::UpdateStatusLayout(void)
	?UpdateTextStyles@CFsControlButtonVisualiser@@MAEXXZ @ 304 NONAME ; void CFsControlButtonVisualiser::UpdateTextStyles(void)
	?VisibilityMode@CFsAlfScrollbarLayout@@QAE?AW4TFsScrollbarVisibility@@W4TFsScrollbar@@@Z @ 305 NONAME ; enum TFsScrollbarVisibility CFsAlfScrollbarLayout::VisibilityMode(enum TFsScrollbar)
	?Visual@CFsControlBar@@QAEPAVCAlfVisual@@XZ @ 306 NONAME ; class CAlfVisual * CFsControlBar::Visual(void)
	?Width@CFsControlBar@@QBEHXZ @ 307 NONAME ; int CFsControlBar::Width(void) const
	?SetMarkingModeL@CFsTreeList@@QAEXH@Z @ 308 NONAME ; void CFsTreeList::SetMarkingModeL(int)

