EXPORTS
	_ZN16EmailMailboxInfoC1Ev @ 1 NONAME
	_ZN16EmailMailboxInfoC2Ev @ 2 NONAME
	_ZN16EmailMailboxInfoD1Ev @ 3 NONAME
	_ZN16EmailMailboxInfoD2Ev @ 4 NONAME
	_ZN18NmUiEventsNotifier11qt_metacallEN11QMetaObject4CallEiPPv @ 5 NONAME
	_ZN18NmUiEventsNotifier11qt_metacastEPKc @ 6 NONAME
	_ZN18NmUiEventsNotifier12valueChangedERK13XQSettingsKeyRK8QVariant @ 7 NONAME
	_ZN18NmUiEventsNotifier16staticMetaObjectE @ 8 NONAME DATA 16
	_ZN18NmUiEventsNotifier16viewStateChangedENS_13NmUiEventTypeE10NmUiViewId4NmId @ 9 NONAME
	_ZN18NmUiEventsNotifier19getStaticMetaObjectEv @ 10 NONAME
	_ZN18NmUiEventsNotifier22notifyViewStateChangedENS_13NmUiEventTypeE10NmUiViewIdRK4NmId @ 11 NONAME
	_ZN18NmUiEventsNotifierC1EP7QObject @ 12 NONAME
	_ZN18NmUiEventsNotifierC2EP7QObject @ 13 NONAME
	_ZN18NmUiEventsNotifierD0Ev @ 14 NONAME
	_ZN18NmUiEventsNotifierD1Ev @ 15 NONAME
	_ZN18NmUiEventsNotifierD2Ev @ 16 NONAME
	_ZNK16EmailMailboxInfo11mailboxIconERK8QVariant @ 17 NONAME
	_ZNK16EmailMailboxInfo11mailboxNameERK8QVariant @ 18 NONAME
	_ZNK18NmUiEventsNotifier10metaObjectEv @ 19 NONAME
	_ZNK18NmUiEventsNotifier13parseKeyValueERK10QByteArrayRNS_13NmUiEventTypeER10NmUiViewIdR4NmId @ 20 NONAME
	_ZNK18NmUiEventsNotifier9keysEqualERK13XQSettingsKeyRK32XQPublishAndSubscribeSettingsKey @ 21 NONAME
	_ZTI18NmUiEventsNotifier @ 22 NONAME
	_ZTV18NmUiEventsNotifier @ 23 NONAME

