EXPORTS
	_ZN10CESMRAlarm21RelativeTimeInMinutesEv @ 1 NONAME
	_ZN10CESMRAlarm22ConstructFromResourceLER15TResourceReader @ 2 NONAME
	_ZN10CESMRAlarm2IdEv @ 3 NONAME
	_ZN10CESMRAlarm4TextEv @ 4 NONAME
	_ZN10CESMRAlarm8RelativeEv @ 5 NONAME
	_ZN10CESMRAlarm9LoadTextLEP7CCoeEnv @ 6 NONAME
	_ZN10CESMRAlarmC1Ev @ 7 NONAME
	_ZN10CESMRAlarmC2Ev @ 8 NONAME
	_ZN10CESMRAlarmD0Ev @ 9 NONAME
	_ZN10CESMRAlarmD1Ev @ 10 NONAME
	_ZN10CESMRAlarmD2Ev @ 11 NONAME
	_ZN11CESMRSendUI16SendAsVCalendarLEiR9CCalEntry @ 12 NONAME
	_ZN11CESMRSendUI20DisplaySendMenuItemLER12CEikMenuPanei @ 13 NONAME
	_ZN11CESMRSendUI23DisplaySendCascadeMenuLER12CEikMenuPane @ 14 NONAME
	_ZN11CESMRSendUI4NewLEi @ 15 NONAME
	_ZN11CESMRSendUI8CanSendLEi @ 16 NONAME
	_ZN11CESMRSendUID0Ev @ 17 NONAME
	_ZN11CESMRSendUID1Ev @ 18 NONAME
	_ZN11CESMRSendUID2Ev @ 19 NONAME
	_ZN11RESMRStatic17CurrentFieldIndexEv @ 20 NONAME
	_ZN11RESMRStatic19ContactMenuHandlerLEv @ 21 NONAME
	_ZN11RESMRStatic20SetCurrentFieldIndexEi @ 22 NONAME
	_ZN11RESMRStatic22ContactManagerHandlerLEv @ 23 NONAME
	_ZN11RESMRStatic5CloseEv @ 24 NONAME
	_ZN11RESMRStatic8ConnectLEv @ 25 NONAME
	_ZN11RESMRStaticC1Ev @ 26 NONAME
	_ZN11RESMRStaticC2Ev @ 27 NONAME
	_ZN11RESMRStaticD1Ev @ 28 NONAME
	_ZN11RESMRStaticD2Ev @ 29 NONAME
	_ZN14CESMRListQuery22ExecuteEditBeforeSendLE19TESMRAttendeeStatus @ 30 NONAME
	_ZN14CESMRListQuery37ExecuteEditBeforeSendWithSendOptOnlyLE19TESMRAttendeeStatus @ 31 NONAME
	_ZN14CESMRListQuery4NewLENS_18TESMRListQueryTypeE @ 32 NONAME
	_ZN14CESMRListQuery8ExecuteLENS_18TESMRListQueryTypeE @ 33 NONAME
	_ZN14CESMRListQuery9ExecuteLDEv @ 34 NONAME
	_ZN14CESMRUiFactory4NewLEv @ 35 NONAME
	_ZN14CESMRUiFactoryD0Ev @ 36 NONAME
	_ZN14CESMRUiFactoryD1Ev @ 37 NONAME
	_ZN14CESMRUiFactoryD2Ev @ 38 NONAME
	_ZN15CESMRGlobalNote4NewLENS_18TESMGlobalNoteTypeE @ 39 NONAME
	_ZN15CESMRGlobalNote8ExecuteLENS_18TESMGlobalNoteTypeE @ 40 NONAME
	_ZN15CESMRRecurrence14RecurrenceTextEv @ 41 NONAME
	_ZN15CESMRRecurrence15RecurrenceValueEv @ 42 NONAME
	_ZN15CESMRRecurrence22ConstructFromResourceLEP7CCoeEnvR15TResourceReader @ 43 NONAME
	_ZN15CESMRRecurrenceC1Ev @ 44 NONAME
	_ZN15CESMRRecurrenceC2Ev @ 45 NONAME
	_ZN15CESMRRecurrenceD0Ev @ 46 NONAME
	_ZN15CESMRRecurrenceD1Ev @ 47 NONAME
	_ZN15CESMRRecurrenceD2Ev @ 48 NONAME
	_ZN16NMRBitmapManager15GetBitmapStructENS_11TMRBitmapIdE @ 49 NONAME
	_ZN16NMRBitmapManager18GetSkinBasedBitmapENS_11TMRBitmapIdERP10CFbsBitmapS3_5TSize @ 50 NONAME
	_ZN16NMRLayoutManager13GetLayoutRectERK5TRectNS_9TMRLayoutE @ 51 NONAME
	_ZN16NMRLayoutManager13GetLayoutTextERK5TRectNS_13TMRTextLayoutE @ 52 NONAME
	_ZN16NMRLayoutManager18GetFieldLayoutRectERK5TRecti @ 53 NONAME
	_ZN16NMRLayoutManager21GetFieldRowLayoutRectERK5TRecti @ 54 NONAME
	_ZN16NMRLayoutManager22GetTextComponentLayoutENS_13TMRTextLayoutE @ 55 NONAME
	_ZN16NMRLayoutManager24GetWindowComponentLayoutENS_9TMRLayoutE @ 56 NONAME
	_ZN17CESMREditorDialog4NewLEP11CESMRPolicyR13MESMRCalEntryR19MAgnEntryUiCallback @ 57 NONAME
	_ZN17CESMRGUIListQuery8ExecuteLENS_18TESMRListQueryTypeE @ 58 NONAME
	_ZN17CESMRViewerDialog4NewLEP11CESMRPolicyR13MESMRCalEntryR19MAgnEntryUiCallback @ 59 NONAME
	_ZN18CESMRLayoutManager10IsMirroredEv @ 60 NONAME
	_ZN18CESMRLayoutManager17SetBitmapFallbackERK11TAknsItemIDRiS3_ @ 61 NONAME
	_ZN18CESMRLayoutManager21ConflictPopupPositionEv @ 62 NONAME
	_ZN19CESMRResponseDialog12ExecuteDlgLDEv @ 63 NONAME
	_ZN19CESMRResponseDialog4NewLERP7HBufC16 @ 64 NONAME
	_ZN22CESMRConfirmationQuery8ExecuteLENS_26TESMRConfirmationQueryTypeE @ 65 NONAME
	_ZN23CESMRContactMenuHandler15ShowActionMenuLEv @ 66 NONAME
	_ZN23CESMRContactMenuHandler18SetAttachmentInfoLEP19CESMRAttachmentInfo @ 67 NONAME
	_ZN23CESMRContactMenuHandler18SetCommandObserverEP19MEikCommandObserver @ 68 NONAME
	_ZN23CESMRContactMenuHandler5ResetEv @ 69 NONAME
	_ZN23CESMRContactMenuHandler9SetValueLERK7TDesC16NS_10TValueTypeE @ 70 NONAME
	_ZN26CESMRContactManagerHandler12AddObserverLEP27MESMRContactManagerObserver @ 71 NONAME
	_ZN26CESMRContactManagerHandler14RemoveObserverEP27MESMRContactManagerObserver @ 72 NONAME
	_ZN26CESMRContactManagerHandler17GetContactManagerEv @ 73 NONAME
	_ZN26CESMRContactManagerHandler7IsReadyEv @ 74 NONAME
	_ZN8CMRImage4NewLEN16NMRBitmapManager11TMRBitmapIdE10TScaleMode @ 75 NONAME
	_ZN8CMRImage4NewLERK11TAknsItemID10TScaleMode @ 76 NONAME
	_ZN8CMRImageD0Ev @ 77 NONAME
	_ZN8CMRImageD1Ev @ 78 NONAME
	_ZN8CMRImageD2Ev @ 79 NONAME
	_ZN8CMRLabel4NewLEv @ 80 NONAME
	_ZN8CMRLabelD0Ev @ 81 NONAME
	_ZN8CMRLabelD1Ev @ 82 NONAME
	_ZN8CMRLabelD2Ev @ 83 NONAME
	_ZTI23CESMRTrackingViewDialog @ 84 NONAME ; #<TI>#
	_ZTI8CMRLabel @ 85 NONAME ; #<TI>#
	_ZTV23CESMRTrackingViewDialog @ 86 NONAME ; #<VT>#
	_ZTV8CMRLabel @ 87 NONAME ; #<VT>#
	_ZThn4_N14CESMRUiFactoryD0Ev @ 88 NONAME ; #<thunk>#
	_ZThn4_N14CESMRUiFactoryD1Ev @ 89 NONAME ; #<thunk>#
	_ZN11RESMRStatic8MailBoxLERK7TDesC16 @ 90 NONAME
