EXPORTS
	?trUtf8@NmAttachmentListItem@@SA?AVQString@@PBD0H@Z @ 1 NONAME ; class QString NmAttachmentListItem::trUtf8(char const *, char const *, int)
	?itemActivated@NmAttachmentListWidget@@IAEXH@Z @ 2 NONAME ; void NmAttachmentListWidget::itemActivated(int)
	?textCursor@NmHtmlLineEdit@@QBE?AVQTextCursor@@XZ @ 3 NONAME ; class QTextCursor NmHtmlLineEdit::textCursor(void) const
	?keyPressEvent@NmRecipientLineEdit@@MAEXPAVQKeyEvent@@@Z @ 4 NONAME ; void NmRecipientLineEdit::keyPressEvent(class QKeyEvent *)
	?sendMouseReleaseEvent@NmEditorTextEdit@@QAEXPAVQGraphicsSceneMouseEvent@@@Z @ 5 NONAME ; void NmEditorTextEdit::sendMouseReleaseEvent(class QGraphicsSceneMouseEvent *)
	?paint@NmAttachmentListWidget@@UAEXPAVQPainter@@PBVQStyleOptionGraphicsItem@@PAVQWidget@@@Z @ 6 NONAME ; void NmAttachmentListWidget::paint(class QPainter *, class QStyleOptionGraphicsItem const *, class QWidget *)
	?tr@NmEditorTextEdit@@SA?AVQString@@PBD0H@Z @ 7 NONAME ; class QString NmEditorTextEdit::tr(char const *, char const *, int)
	?toHtml@NmHtmlLineEdit@@QBE?AVQString@@XZ @ 8 NONAME ; class QString NmHtmlLineEdit::toHtml(void) const
	?metaObject@NmBaseViewScrollArea@@UBEPBUQMetaObject@@XZ @ 9 NONAME ; struct QMetaObject const * NmBaseViewScrollArea::metaObject(void) const
	?emailAddressList@NmRecipientLineEdit@@QAE?AV?$QList@VNmAddress@@@@XZ @ 10 NONAME ; class QList<class NmAddress> NmRecipientLineEdit::emailAddressList(void)
	?getStaticMetaObject@NmAttachmentListItem@@SAABUQMetaObject@@XZ @ 11 NONAME ; struct QMetaObject const & NmAttachmentListItem::getStaticMetaObject(void)
	?getStaticMetaObject@NmBaseViewScrollArea@@SAABUQMetaObject@@XZ @ 12 NONAME ; struct QMetaObject const & NmBaseViewScrollArea::getStaticMetaObject(void)
	?getStaticMetaObject@NmAttachmentListWidget@@SAABUQMetaObject@@XZ @ 13 NONAME ; struct QMetaObject const & NmAttachmentListWidget::getStaticMetaObject(void)
	??_ENmAttachmentListItem@@UAE@I@Z @ 14 NONAME ; NmAttachmentListItem::~NmAttachmentListItem(unsigned int)
	?sendMouseMoveEvent@NmEditorTextEdit@@QAEXPAVQGraphicsSceneMouseEvent@@@Z @ 15 NONAME ; void NmEditorTextEdit::sendMouseMoveEvent(class QGraphicsSceneMouseEvent *)
	?updateEditorHeight@NmEditorTextEdit@@QAEXXZ @ 16 NONAME ; void NmEditorTextEdit::updateEditorHeight(void)
	?qt_metacast@NmHtmlLineEdit@@UAEPAXPBD@Z @ 17 NONAME ; void * NmHtmlLineEdit::qt_metacast(char const *)
	?metaObject@NmEditorTextEdit@@UBEPBUQMetaObject@@XZ @ 18 NONAME ; struct QMetaObject const * NmEditorTextEdit::metaObject(void) const
	?init@NmEditorTextEdit@@QAEXPAVNmEditorContent@@PAVNmBaseViewScrollArea@@@Z @ 19 NONAME ; void NmEditorTextEdit::init(class NmEditorContent *, class NmBaseViewScrollArea *)
	?setFileNameText@NmAttachmentListItem@@QAEXABVQString@@@Z @ 20 NONAME ; void NmAttachmentListItem::setFileNameText(class QString const &)
	?qt_metacast@NmBaseViewScrollArea@@UAEPAXPBD@Z @ 21 NONAME ; void * NmBaseViewScrollArea::qt_metacast(char const *)
	?tr@NmBaseViewScrollArea@@SA?AVQString@@PBD0H@Z @ 22 NONAME ; class QString NmBaseViewScrollArea::tr(char const *, char const *, int)
	?qt_metacall@NmAttachmentListWidget@@UAEHW4Call@QMetaObject@@HPAPAX@Z @ 23 NONAME ; int NmAttachmentListWidget::qt_metacall(enum QMetaObject::Call, int, void * *)
	?trUtf8@NmAttachmentListWidget@@SA?AVQString@@PBD0H@Z @ 24 NONAME ; class QString NmAttachmentListWidget::trUtf8(char const *, char const *, int)
	?qt_metacall@NmRecipientLineEdit@@UAEHW4Call@QMetaObject@@HPAPAX@Z @ 25 NONAME ; int NmRecipientLineEdit::qt_metacall(enum QMetaObject::Call, int, void * *)
	??0NmAttachmentListItem@@QAE@PAVQGraphicsItem@@@Z @ 26 NONAME ; NmAttachmentListItem::NmAttachmentListItem(class QGraphicsItem *)
	?trUtf8@NmBaseViewScrollArea@@SA?AVQString@@PBD0H@Z @ 27 NONAME ; class QString NmBaseViewScrollArea::trUtf8(char const *, char const *, int)
	??1NmHtmlLineEdit@@UAE@XZ @ 28 NONAME ; NmHtmlLineEdit::~NmHtmlLineEdit(void)
	?setProgressBarValue@NmAttachmentListItem@@QAEXH@Z @ 29 NONAME ; void NmAttachmentListItem::setProgressBarValue(int)
	?trUtf8@NmHtmlLineEdit@@SA?AVQString@@PBD0@Z @ 30 NONAME ; class QString NmHtmlLineEdit::trUtf8(char const *, char const *)
	??0NmRecipientLineEdit@@QAE@PAVQGraphicsItem@@@Z @ 31 NONAME ; NmRecipientLineEdit::NmRecipientLineEdit(class QGraphicsItem *)
	?setAttachmentSize@NmAttachmentListWidget@@QAEXHABVQString@@@Z @ 32 NONAME ; void NmAttachmentListWidget::setAttachmentSize(int, class QString const &)
	?trUtf8@NmEditorTextEdit@@SA?AVQString@@PBD0H@Z @ 33 NONAME ; class QString NmEditorTextEdit::trUtf8(char const *, char const *, int)
	?setPlainText@NmHtmlLineEdit@@QAEXABVQString@@@Z @ 34 NONAME ; void NmHtmlLineEdit::setPlainText(class QString const &)
	?longPressGesture@NmBaseViewScrollArea@@MAEXABVQPointF@@@Z @ 35 NONAME ; void NmBaseViewScrollArea::longPressGesture(class QPointF const &)
	?updateCustomTextColor@NmEditorTextEdit@@QAEXXZ @ 36 NONAME ; void NmEditorTextEdit::updateCustomTextColor(void)
	?orientationChanged@NmAttachmentListWidget@@AAEXW4Orientation@Qt@@@Z @ 37 NONAME ; void NmAttachmentListWidget::orientationChanged(enum Qt::Orientation)
	?insertSelectedContacts@NmRecipientLineEdit@@QAEXABVQVariant@@@Z @ 38 NONAME ; void NmRecipientLineEdit::insertSelectedContacts(class QVariant const &)
	?qt_metacast@NmAttachmentListWidget@@UAEPAXPBD@Z @ 39 NONAME ; void * NmAttachmentListWidget::qt_metacast(char const *)
	?getStaticMetaObject@NmHtmlLineEdit@@SAABUQMetaObject@@XZ @ 40 NONAME ; struct QMetaObject const & NmHtmlLineEdit::getStaticMetaObject(void)
	?qt_metacall@NmEditorTextEdit@@UAEHW4Call@QMetaObject@@HPAPAX@Z @ 41 NONAME ; int NmEditorTextEdit::qt_metacall(enum QMetaObject::Call, int, void * *)
	??1NmAttachmentListWidget@@UAE@XZ @ 42 NONAME ; NmAttachmentListWidget::~NmAttachmentListWidget(void)
	??_ENmRecipientLineEdit@@UAE@I@Z @ 43 NONAME ; NmRecipientLineEdit::~NmRecipientLineEdit(unsigned int)
	?qt_metacast@NmRecipientLineEdit@@UAEPAXPBD@Z @ 44 NONAME ; void * NmRecipientLineEdit::qt_metacast(char const *)
	?setCustomTextColor@NmEditorTextEdit@@QAEXABU?$QPair@_NVQColor@@@@@Z @ 45 NONAME ; void NmEditorTextEdit::setCustomTextColor(struct QPair<bool, class QColor> const &)
	?setDocument@NmHtmlLineEdit@@QAEXPAVQTextDocument@@@Z @ 46 NONAME ; void NmHtmlLineEdit::setDocument(class QTextDocument *)
	?trUtf8@NmEditorTextEdit@@SA?AVQString@@PBD0@Z @ 47 NONAME ; class QString NmEditorTextEdit::trUtf8(char const *, char const *)
	??0NmBaseViewScrollArea@@QAE@PAVQGraphicsItem@@@Z @ 48 NONAME ; NmBaseViewScrollArea::NmBaseViewScrollArea(class QGraphicsItem *)
	?longPressed@NmAttachmentListWidget@@IAEXHVQPointF@@@Z @ 49 NONAME ; void NmAttachmentListWidget::longPressed(int, class QPointF)
	?staticMetaObject@NmEditorTextEdit@@2UQMetaObject@@B @ 50 NONAME ; struct QMetaObject const NmEditorTextEdit::staticMetaObject
	??0NmEditorTextEdit@@QAE@PAVQGraphicsItem@@@Z @ 51 NONAME ; NmEditorTextEdit::NmEditorTextEdit(class QGraphicsItem *)
	??_ENmEditorTextEdit@@UAE@I@Z @ 52 NONAME ; NmEditorTextEdit::~NmEditorTextEdit(unsigned int)
	?sendLongPressEvent@NmEditorTextEdit@@QAEXABVQPointF@@@Z @ 53 NONAME ; void NmEditorTextEdit::sendLongPressEvent(class QPointF const &)
	?qt_metacast@NmAttachmentListItem@@UAEPAXPBD@Z @ 54 NONAME ; void * NmAttachmentListItem::qt_metacast(char const *)
	?handleMouseReleaseEvent@NmBaseViewScrollArea@@IAEXPAVQGraphicsSceneMouseEvent@@@Z @ 55 NONAME ; void NmBaseViewScrollArea::handleMouseReleaseEvent(class QGraphicsSceneMouseEvent *)
	?removeProgressBar@NmAttachmentListItem@@AAEXXZ @ 56 NONAME ; void NmAttachmentListItem::removeProgressBar(void)
	??1NmBaseViewScrollArea@@UAE@XZ @ 57 NONAME ; NmBaseViewScrollArea::~NmBaseViewScrollArea(void)
	?sendMousePressEvent@NmEditorTextEdit@@QAEXPAVQGraphicsSceneMouseEvent@@@Z @ 58 NONAME ; void NmEditorTextEdit::sendMousePressEvent(class QGraphicsSceneMouseEvent *)
	??_ENmHtmlLineEdit@@UAE@I@Z @ 59 NONAME ; NmHtmlLineEdit::~NmHtmlLineEdit(unsigned int)
	?tr@NmAttachmentListWidget@@SA?AVQString@@PBD0H@Z @ 60 NONAME ; class QString NmAttachmentListWidget::tr(char const *, char const *, int)
	?handleMousePressEvent@NmBaseViewScrollArea@@IAEXPAVQGraphicsSceneMouseEvent@@@Z @ 61 NONAME ; void NmBaseViewScrollArea::handleMousePressEvent(class QGraphicsSceneMouseEvent *)
	?insertItemToLayout@NmAttachmentListWidget@@AAEXPAVNmAttachmentListItem@@@Z @ 62 NONAME ; void NmAttachmentListWidget::insertItemToLayout(class NmAttachmentListItem *)
	?metaObject@NmHtmlLineEdit@@UBEPBUQMetaObject@@XZ @ 63 NONAME ; struct QMetaObject const * NmHtmlLineEdit::metaObject(void) const
	?setTextColor@NmAttachmentListItem@@QAEXVQColor@@@Z @ 64 NONAME ; void NmAttachmentListItem::setTextColor(class QColor)
	??1NmAttachmentListItem@@UAE@XZ @ 65 NONAME ; NmAttachmentListItem::~NmAttachmentListItem(void)
	?count@NmAttachmentListWidget@@QBEHXZ @ 66 NONAME ; int NmAttachmentListWidget::count(void) const
	?handleTextChanged@NmRecipientLineEdit@@AAEXABVQString@@@Z @ 67 NONAME ; void NmRecipientLineEdit::handleTextChanged(class QString const &)
	?longPressedActivated@NmAttachmentListItem@@AAEXXZ @ 68 NONAME ; void NmAttachmentListItem::longPressedActivated(void)
	?handleLongPressGesture@NmBaseViewScrollArea@@IAEXABVQPointF@@@Z @ 69 NONAME ; void NmBaseViewScrollArea::handleLongPressGesture(class QPointF const &)
	?updateScrollPosition@NmEditorTextEdit@@QAEXABVQPointF@@@Z @ 70 NONAME ; void NmEditorTextEdit::updateScrollPosition(class QPointF const &)
	?contentHeight@NmEditorTextEdit@@QBEMXZ @ 71 NONAME ; float NmEditorTextEdit::contentHeight(void) const
	?qt_metacast@NmEditorTextEdit@@UAEPAXPBD@Z @ 72 NONAME ; void * NmEditorTextEdit::qt_metacast(char const *)
	?mouseMoveEvent@NmBaseViewScrollArea@@UAEXPAVQGraphicsSceneMouseEvent@@@Z @ 73 NONAME ; void NmBaseViewScrollArea::mouseMoveEvent(class QGraphicsSceneMouseEvent *)
	?qt_metacall@NmAttachmentListItem@@UAEHW4Call@QMetaObject@@HPAPAX@Z @ 74 NONAME ; int NmAttachmentListItem::qt_metacall(enum QMetaObject::Call, int, void * *)
	?handleLongPressed@NmAttachmentListWidget@@AAEXVQPointF@@@Z @ 75 NONAME ; void NmAttachmentListWidget::handleLongPressed(class QPointF)
	?staticMetaObject@NmBaseViewScrollArea@@2UQMetaObject@@B @ 76 NONAME ; struct QMetaObject const NmBaseViewScrollArea::staticMetaObject
	?setHeaderHeight@NmEditorTextEdit@@QAEXH@Z @ 77 NONAME ; void NmEditorTextEdit::setHeaderHeight(int)
	?init@NmAttachmentListWidget@@AAEXXZ @ 78 NONAME ; void NmAttachmentListWidget::init(void)
	?rearrangeLayout@NmAttachmentListWidget@@AAEXXZ @ 79 NONAME ; void NmAttachmentListWidget::rearrangeLayout(void)
	?trUtf8@NmRecipientLineEdit@@SA?AVQString@@PBD0@Z @ 80 NONAME ; class QString NmRecipientLineEdit::trUtf8(char const *, char const *)
	?metaObject@NmRecipientLineEdit@@UBEPBUQMetaObject@@XZ @ 81 NONAME ; struct QMetaObject const * NmRecipientLineEdit::metaObject(void) const
	?tr@NmAttachmentListItem@@SA?AVQString@@PBD0@Z @ 82 NONAME ; class QString NmAttachmentListItem::tr(char const *, char const *)
	?trUtf8@NmAttachmentListItem@@SA?AVQString@@PBD0@Z @ 83 NONAME ; class QString NmAttachmentListItem::trUtf8(char const *, char const *)
	?trUtf8@NmBaseViewScrollArea@@SA?AVQString@@PBD0@Z @ 84 NONAME ; class QString NmBaseViewScrollArea::trUtf8(char const *, char const *)
	?tr@NmBaseViewScrollArea@@SA?AVQString@@PBD0@Z @ 85 NONAME ; class QString NmBaseViewScrollArea::tr(char const *, char const *)
	?setFileSizeText@NmAttachmentListItem@@QAEXABVQString@@@Z @ 86 NONAME ; void NmAttachmentListItem::setFileSizeText(class QString const &)
	?customTextColor@NmEditorTextEdit@@QBE?AU?$QPair@_NVQColor@@@@XZ @ 87 NONAME ; struct QPair<bool, class QColor> NmEditorTextEdit::customTextColor(void) const
	?staticMetaObject@NmHtmlLineEdit@@2UQMetaObject@@B @ 88 NONAME ; struct QMetaObject const NmHtmlLineEdit::staticMetaObject
	?inputMethodEvent@NmRecipientLineEdit@@MAEXPAVQInputMethodEvent@@@Z @ 89 NONAME ; void NmRecipientLineEdit::inputMethodEvent(class QInputMethodEvent *)
	?mouseReleaseEvent@NmBaseViewScrollArea@@UAEXPAVQGraphicsSceneMouseEvent@@@Z @ 90 NONAME ; void NmBaseViewScrollArea::mouseReleaseEvent(class QGraphicsSceneMouseEvent *)
	?constructUi@NmAttachmentListWidget@@AAEXXZ @ 91 NONAME ; void NmAttachmentListWidget::constructUi(void)
	?toPlainText@NmHtmlLineEdit@@QBE?AVQString@@XZ @ 92 NONAME ; class QString NmHtmlLineEdit::toPlainText(void) const
	?getStaticMetaObject@NmEditorTextEdit@@SAABUQMetaObject@@XZ @ 93 NONAME ; struct QMetaObject const & NmEditorTextEdit::getStaticMetaObject(void)
	?setScrollPosition@NmEditorTextEdit@@QAEXHH@Z @ 94 NONAME ; void NmEditorTextEdit::setScrollPosition(int, int)
	?tr@NmEditorTextEdit@@SA?AVQString@@PBD0@Z @ 95 NONAME ; class QString NmEditorTextEdit::tr(char const *, char const *)
	?staticMetaObject@NmAttachmentListItem@@2UQMetaObject@@B @ 96 NONAME ; struct QMetaObject const NmAttachmentListItem::staticMetaObject
	??_ENmBaseViewScrollArea@@UAE@I@Z @ 97 NONAME ; NmBaseViewScrollArea::~NmBaseViewScrollArea(unsigned int)
	?itemLongPressed@NmAttachmentListItem@@IAEXVQPointF@@@Z @ 98 NONAME ; void NmAttachmentListItem::itemLongPressed(class QPointF)
	?progressBarValue@NmAttachmentListItem@@QBEHXZ @ 99 NONAME ; int NmAttachmentListItem::progressBarValue(void) const
	?setCustomTextColor@NmEditorTextEdit@@QAEX_NABVQColor@@@Z @ 100 NONAME ; void NmEditorTextEdit::setCustomTextColor(bool, class QColor const &)
	?setEditorContentHeight@NmEditorTextEdit@@IAEXXZ @ 101 NONAME ; void NmEditorTextEdit::setEditorContentHeight(void)
	??0NmHtmlLineEdit@@QAE@PAVQGraphicsItem@@@Z @ 102 NONAME ; NmHtmlLineEdit::NmHtmlLineEdit(class QGraphicsItem *)
	?init@NmAttachmentListItem@@AAEXXZ @ 103 NONAME ; void NmAttachmentListItem::init(void)
	?tr@NmRecipientLineEdit@@SA?AVQString@@PBD0@Z @ 104 NONAME ; class QString NmRecipientLineEdit::tr(char const *, char const *)
	??1NmEditorTextEdit@@UAE@XZ @ 105 NONAME ; NmEditorTextEdit::~NmEditorTextEdit(void)
	?generateEmailAddressList@NmRecipientLineEdit@@AAEXXZ @ 106 NONAME ; void NmRecipientLineEdit::generateEmailAddressList(void)
	?trUtf8@NmAttachmentListWidget@@SA?AVQString@@PBD0@Z @ 107 NONAME ; class QString NmAttachmentListWidget::trUtf8(char const *, char const *)
	?mousePressEvent@NmBaseViewScrollArea@@UAEXPAVQGraphicsSceneMouseEvent@@@Z @ 108 NONAME ; void NmBaseViewScrollArea::mousePressEvent(class QGraphicsSceneMouseEvent *)
	?handleItemActivated@NmAttachmentListWidget@@AAEXXZ @ 109 NONAME ; void NmAttachmentListWidget::handleItemActivated(void)
	?metaObject@NmAttachmentListWidget@@UBEPBUQMetaObject@@XZ @ 110 NONAME ; struct QMetaObject const * NmAttachmentListWidget::metaObject(void) const
	?constructUi@NmAttachmentListItem@@AAEXXZ @ 111 NONAME ; void NmAttachmentListItem::constructUi(void)
	?trUtf8@NmHtmlLineEdit@@SA?AVQString@@PBD0H@Z @ 112 NONAME ; class QString NmHtmlLineEdit::trUtf8(char const *, char const *, int)
	?setHtml@NmHtmlLineEdit@@QAEXABVQString@@@Z @ 113 NONAME ; void NmHtmlLineEdit::setHtml(class QString const &)
	?tr@NmHtmlLineEdit@@SA?AVQString@@PBD0H@Z @ 114 NONAME ; class QString NmHtmlLineEdit::tr(char const *, char const *, int)
	?mouseReleaseEvent@NmAttachmentListItem@@MAEXPAVQGraphicsSceneMouseEvent@@@Z @ 115 NONAME ; void NmAttachmentListItem::mouseReleaseEvent(class QGraphicsSceneMouseEvent *)
	?itemActivated@NmAttachmentListItem@@IAEXXZ @ 116 NONAME ; void NmAttachmentListItem::itemActivated(void)
	?tr@NmAttachmentListWidget@@SA?AVQString@@PBD0@Z @ 117 NONAME ; class QString NmAttachmentListWidget::tr(char const *, char const *)
	?getStaticMetaObject@NmRecipientLineEdit@@SAABUQMetaObject@@XZ @ 118 NONAME ; struct QMetaObject const & NmRecipientLineEdit::getStaticMetaObject(void)
	?findItem@NmAttachmentListWidget@@AAEHPBVQObject@@@Z @ 119 NONAME ; int NmAttachmentListWidget::findItem(class QObject const *)
	??1NmRecipientLineEdit@@UAE@XZ @ 120 NONAME ; NmRecipientLineEdit::~NmRecipientLineEdit(void)
	?removeAttachment@NmAttachmentListWidget@@QAEXH@Z @ 121 NONAME ; void NmAttachmentListWidget::removeAttachment(int)
	?trUtf8@NmRecipientLineEdit@@SA?AVQString@@PBD0H@Z @ 122 NONAME ; class QString NmRecipientLineEdit::trUtf8(char const *, char const *, int)
	?tr@NmRecipientLineEdit@@SA?AVQString@@PBD0H@Z @ 123 NONAME ; class QString NmRecipientLineEdit::tr(char const *, char const *, int)
	?progressValue@NmAttachmentListWidget@@QBEHH@Z @ 124 NONAME ; int NmAttachmentListWidget::progressValue(int) const
	?staticMetaObject@NmAttachmentListWidget@@2UQMetaObject@@B @ 125 NONAME ; struct QMetaObject const NmAttachmentListWidget::staticMetaObject
	??_ENmAttachmentListWidget@@UAE@I@Z @ 126 NONAME ; NmAttachmentListWidget::~NmAttachmentListWidget(unsigned int)
	?setTextColor@NmAttachmentListWidget@@QAEXVQColor@@@Z @ 127 NONAME ; void NmAttachmentListWidget::setTextColor(class QColor)
	?setTextCursor@NmHtmlLineEdit@@QAEXABVQTextCursor@@@Z @ 128 NONAME ; void NmHtmlLineEdit::setTextCursor(class QTextCursor const &)
	?handleMouseMoveEvent@NmBaseViewScrollArea@@IAEXPAVQGraphicsSceneMouseEvent@@@Z @ 129 NONAME ; void NmBaseViewScrollArea::handleMouseMoveEvent(class QGraphicsSceneMouseEvent *)
	?staticMetaObject@NmRecipientLineEdit@@2UQMetaObject@@B @ 130 NONAME ; struct QMetaObject const NmRecipientLineEdit::staticMetaObject
	?setProgressBarValue@NmAttachmentListWidget@@QAEXHH@Z @ 131 NONAME ; void NmAttachmentListWidget::setProgressBarValue(int, int)
	?metaObject@NmAttachmentListItem@@UBEPBUQMetaObject@@XZ @ 132 NONAME ; struct QMetaObject const * NmAttachmentListItem::metaObject(void) const
	?insertAttachment@NmAttachmentListWidget@@QAEXHABVQString@@0@Z @ 133 NONAME ; void NmAttachmentListWidget::insertAttachment(int, class QString const &, class QString const &)
	??0NmAttachmentListWidget@@QAE@PAVQGraphicsItem@@@Z @ 134 NONAME ; NmAttachmentListWidget::NmAttachmentListWidget(class QGraphicsItem *)
	?mousePressEvent@NmAttachmentListItem@@MAEXPAVQGraphicsSceneMouseEvent@@@Z @ 135 NONAME ; void NmAttachmentListItem::mousePressEvent(class QGraphicsSceneMouseEvent *)
	?tr@NmAttachmentListItem@@SA?AVQString@@PBD0H@Z @ 136 NONAME ; class QString NmAttachmentListItem::tr(char const *, char const *, int)
	?document@NmHtmlLineEdit@@QBEPAVQTextDocument@@XZ @ 137 NONAME ; class QTextDocument * NmHtmlLineEdit::document(void) const
	?qt_metacall@NmBaseViewScrollArea@@UAEHW4Call@QMetaObject@@HPAPAX@Z @ 138 NONAME ; int NmBaseViewScrollArea::qt_metacall(enum QMetaObject::Call, int, void * *)
	?qt_metacall@NmHtmlLineEdit@@UAEHW4Call@QMetaObject@@HPAPAX@Z @ 139 NONAME ; int NmHtmlLineEdit::qt_metacall(enum QMetaObject::Call, int, void * *)
	?tr@NmHtmlLineEdit@@SA?AVQString@@PBD0@Z @ 140 NONAME ; class QString NmHtmlLineEdit::tr(char const *, char const *)

