EXPORTS
	??1CESMRAlarmInfoHandler@@UAE@XZ @ 1 NONAME ; CESMRAlarmInfoHandler::~CESMRAlarmInfoHandler(void)
	??1CESMRAttachment@@UAE@XZ @ 2 NONAME ; CESMRAttachment::~CESMRAttachment(void)
	??1CESMRAttachmentInfo@@UAE@XZ @ 3 NONAME ; CESMRAttachmentInfo::~CESMRAttachmentInfo(void)
	??1CESMRCalImportExporter@@UAE@XZ @ 4 NONAME ; CESMRCalImportExporter::~CESMRCalImportExporter(void)
	??1CESMRCalUserUtil@@UAE@XZ @ 5 NONAME ; CESMRCalUserUtil::~CESMRCalUserUtil(void)
	??1CESMRRecurrenceInfoHandler@@UAE@XZ @ 6 NONAME ; CESMRRecurrenceInfoHandler::~CESMRRecurrenceInfoHandler(void)
	?AddAttachmentInfoL@CESMRAttachmentInfo@@QAEXABVTDesC16@@HW4TESMRAttachmentState@CESMRAttachment@@@Z @ 7 NONAME ; void CESMRAttachmentInfo::AddAttachmentInfoL(class TDesC16 const &, int, enum CESMRAttachment::TESMRAttachmentState)
	?AddAttachmentInfoL@CESMRAttachmentInfo@@QAEXPAVCESMRAttachment@@@Z @ 8 NONAME ; void CESMRAttachmentInfo::AddAttachmentInfoL(class CESMRAttachment *)
	?AddExceptionL@CESMRRecurrenceInfoHandler@@QAEXVTCalTime@@0@Z @ 9 NONAME ; void CESMRRecurrenceInfoHandler::AddExceptionL(class TCalTime, class TCalTime)
	?AttachmenState@CESMRAttachment@@QBE?AW4TESMRAttachmentState@1@XZ @ 10 NONAME ; enum CESMRAttachment::TESMRAttachmentState CESMRAttachment::AttachmenState(void) const
	?AttachmentCount@CESMRAttachmentInfo@@QBEHXZ @ 11 NONAME ; int CESMRAttachmentInfo::AttachmentCount(void) const
	?AttachmentL@CESMRAttachmentInfo@@QBEABVCESMRAttachment@@H@Z @ 12 NONAME ; class CESMRAttachment const & CESMRAttachmentInfo::AttachmentL(int) const
	?AttachmentName@CESMRAttachment@@QBEABVTDesC16@@XZ @ 13 NONAME ; class TDesC16 const & CESMRAttachment::AttachmentName(void) const
	?AttachmentSizeInBytes@CESMRAttachment@@QBEHXZ @ 14 NONAME ; int CESMRAttachment::AttachmentSizeInBytes(void) const
	?CopyRecurrenceInformationFromL@CESMRRecurrenceInfoHandler@@QAEXABVCCalEntry@@@Z @ 15 NONAME ; void CESMRRecurrenceInfoHandler::CopyRecurrenceInformationFromL(class CCalEntry const &)
	?CopyRecurrenceInformationToL@CESMRRecurrenceInfoHandler@@QAEXAAVCCalEntry@@@Z @ 16 NONAME ; void CESMRRecurrenceInfoHandler::CopyRecurrenceInformationToL(class CCalEntry &)
	?GetAbsoluteAlarmTimeL@CESMRAlarmInfoHandler@@QAEXAAVCCalEntry@@AAVTTime@@@Z @ 17 NONAME ; void CESMRAlarmInfoHandler::GetAbsoluteAlarmTimeL(class CCalEntry &, class TTime &)
	?GetAlarmInfoObjectL@CESMRAlarmInfoHandler@@QAEXABVCCalEntry@@AAVTESMRAlarmInfo@@@Z @ 18 NONAME ; void CESMRAlarmInfoHandler::GetAlarmInfoObjectL(class CCalEntry const &, class TESMRAlarmInfo &)
	?GetAttendeesL@CESMRCalUserUtil@@QBEXAAV?$RArray@PAVCCalAttendee@@@@I@Z @ 19 NONAME ; void CESMRCalUserUtil::GetAttendeesL(class RArray<class CCalAttendee *> &, unsigned int) const
	?GetFirstInstanceTimeL@CESMRRecurrenceInfoHandler@@QAEXAAVTCalTime@@0@Z @ 20 NONAME ; void CESMRRecurrenceInfoHandler::GetFirstInstanceTimeL(class TCalTime &, class TCalTime &)
	?GetRecurrenceL@CESMRRecurrenceInfoHandler@@QBEXAAW4TESMRRecurrenceValue@@AAVTTime@@@Z @ 21 NONAME ; void CESMRRecurrenceInfoHandler::GetRecurrenceL(enum TESMRRecurrenceValue &, class TTime &) const
	?NewL@CESMRAlarmInfoHandler@@SAPAV1@XZ @ 22 NONAME ; class CESMRAlarmInfoHandler * CESMRAlarmInfoHandler::NewL(void)
	?NewL@CESMRAttachment@@SAPAV1@ABVTDesC16@@HW4TESMRAttachmentState@1@@Z @ 23 NONAME ; class CESMRAttachment * CESMRAttachment::NewL(class TDesC16 const &, int, enum CESMRAttachment::TESMRAttachmentState)
	?NewL@CESMRAttachment@@SAPAV1@XZ @ 24 NONAME ; class CESMRAttachment * CESMRAttachment::NewL(void)
	?NewL@CESMRAttachmentInfo@@SAPAV1@XZ @ 25 NONAME ; class CESMRAttachmentInfo * CESMRAttachmentInfo::NewL(void)
	?NewL@CESMRCalImportExporter@@SAPAV1@XZ @ 26 NONAME ; class CESMRCalImportExporter * CESMRCalImportExporter::NewL(void)
	?NewL@CESMRCalUserUtil@@SAPAV1@AAVCCalEntry@@@Z @ 27 NONAME ; class CESMRCalUserUtil * CESMRCalUserUtil::NewL(class CCalEntry &)
	?NewL@CESMRRecurrenceInfoHandler@@SAPAV1@AAVCCalEntry@@@Z @ 28 NONAME ; class CESMRRecurrenceInfoHandler * CESMRRecurrenceInfoHandler::NewL(class CCalEntry &)
	?NewLC@CESMRAlarmInfoHandler@@SAPAV1@XZ @ 29 NONAME ; class CESMRAlarmInfoHandler * CESMRAlarmInfoHandler::NewLC(void)
	?NewLC@CESMRCalImportExporter@@SAPAV1@XZ @ 30 NONAME ; class CESMRCalImportExporter * CESMRCalImportExporter::NewLC(void)
	?NewLC@CESMRCalUserUtil@@SAPAV1@AAVCCalEntry@@@Z @ 31 NONAME ; class CESMRCalUserUtil * CESMRCalUserUtil::NewLC(class CCalEntry &)
	?NewLC@CESMRRecurrenceInfoHandler@@SAPAV1@AAVCCalEntry@@@Z @ 32 NONAME ; class CESMRRecurrenceInfoHandler * CESMRRecurrenceInfoHandler::NewLC(class CCalEntry &)
	?PhoneOwnerRoleL@CESMRCalUserUtil@@QBE?AW4TESMRRole@@XZ @ 33 NONAME ; enum TESMRRole CESMRCalUserUtil::PhoneOwnerRoleL(void) const
	?ReadFromResourceL@CESMRAlarmInfoHandler@@QAEXABVTDesC16@@H@Z @ 34 NONAME ; void CESMRAlarmInfoHandler::ReadFromResourceL(class TDesC16 const &, int)
	?RemoveAttachmentAtL@CESMRAttachmentInfo@@QAEXH@Z @ 35 NONAME ; void CESMRAttachmentInfo::RemoveAttachmentAtL(int)
	?RemoveInstanceL@CESMRRecurrenceInfoHandler@@QAEXVTCalTime@@@Z @ 36 NONAME ; void CESMRRecurrenceInfoHandler::RemoveInstanceL(class TCalTime)
	?SetAttachmentNameL@CESMRAttachment@@QAEXABVTDes16@@@Z @ 37 NONAME ; void CESMRAttachment::SetAttachmentNameL(class TDes16 const &)
	?SetAttachmentSize@CESMRAttachment@@QAEXH@Z @ 38 NONAME ; void CESMRAttachment::SetAttachmentSize(int)
	?SetAttachmentState@CESMRAttachment@@QAEXW4TESMRAttachmentState@1@@Z @ 39 NONAME ; void CESMRAttachment::SetAttachmentState(enum CESMRAttachment::TESMRAttachmentState)
	?SetRecurrenceL@CESMRRecurrenceInfoHandler@@QAEXW4TESMRRecurrenceValue@@VTTime@@@Z @ 40 NONAME ; void CESMRRecurrenceInfoHandler::SetRecurrenceL(enum TESMRRecurrenceValue, class TTime)

