EXPORTS
	_ZN13CESMRICalBase12AddPropertyLERK7TDesC16P14CESMRICalValue @ 1 NONAME
	_ZN13CESMRICalBase12AddPropertyLERK7TDesC16S2_ @ 2 NONAME
	_ZN13CESMRICalBase13AddComponentLENS_18TICalComponentTypeE @ 3 NONAME
	_ZN14CESMRICalValue10SetBinaryLERK6TDesC8 @ 4 NONAME
	_ZN14CESMRICalValue10SetPeriodLERK5TTimeNS_13TTimeZoneTypeES2_S3_ @ 5 NONAME
	_ZN14CESMRICalValue11SetBooleanLEi @ 6 NONAME
	_ZN14CESMRICalValue11SetIntegerLEi @ 7 NONAME
	_ZN14CESMRICalValue12SetDateTimeLERK5TTimeNS_13TTimeZoneTypeE @ 8 NONAME
	_ZN14CESMRICalValue12SetDurationLE20TTimeIntervalSeconds @ 9 NONAME
	_ZN14CESMRICalValue13SetUtcOffsetLE20TTimeIntervalSeconds @ 10 NONAME
	_ZN14CESMRICalValue18SetRecurrenceRuleLERK7TDesC16 @ 11 NONAME
	_ZN14CESMRICalValue4NewLEv @ 12 NONAME
	_ZN14CESMRICalValue5NewLCEv @ 13 NONAME
	_ZN14CESMRICalValue7SetDayLE4TDayi @ 14 NONAME
	_ZN14CESMRICalValue8SetDateLERK5TTime @ 15 NONAME
	_ZN14CESMRICalValue8SetTextLERK7TDesC16 @ 16 NONAME
	_ZN14CESMRICalValue8SetTimeLERK5TTimeNS_13TTimeZoneTypeE @ 17 NONAME
	_ZN14CESMRICalValue9SetFloatLERKd @ 18 NONAME
	_ZN14CESMRICalValue9SetMonthLE6TMonth @ 19 NONAME
	_ZN15CESMRICalParser12InternalizeLER11RReadStream @ 20 NONAME
	_ZN15CESMRICalParser3CalEi @ 21 NONAME
	_ZN15CESMRICalParser4NewLEv @ 22 NONAME
	_ZN15CESMRICalParser5NewLCEv @ 23 NONAME
	_ZN17CESMRICalProperty17AddPropertyParamLERK7TDesC16P14CESMRICalValue @ 24 NONAME
	_ZN17CESMRICalProperty17AddPropertyParamLERK7TDesC16S2_ @ 25 NONAME
	_ZN17CESMRICalProperty4NewLERK7TDesC16P14CESMRICalValue @ 26 NONAME
	_ZN17CESMRICalProperty4NewLERK7TDesC16S2_ @ 27 NONAME
	_ZN17CESMRICalProperty5NewLCERK7TDesC16P14CESMRICalValue @ 28 NONAME
	_ZN17CESMRICalProperty5NewLCERK7TDesC16S2_ @ 29 NONAME
	_ZN17CESMRICalProperty9AddValueLEP14CESMRICalValue @ 30 NONAME
	_ZN17CESMRICalProperty9AddValueLERK7TDesC16 @ 31 NONAME
	_ZN18CESMRICalComponent20CreateICalComponentLEN13CESMRICalBase18TICalComponentTypeENS0_11TICalMethodE @ 32 NONAME
	_ZN18CESMRICalComponent20CreateICalComponentLERK7TDesC16N13CESMRICalBase11TICalMethodE @ 33 NONAME
	_ZN18CESMRICalComponent21CreateICalComponentLCEN13CESMRICalBase18TICalComponentTypeENS0_11TICalMethodE @ 34 NONAME
	_ZN18CESMRICalComponent21CreateICalComponentLCERK7TDesC16N13CESMRICalBase11TICalMethodE @ 35 NONAME
	_ZN22CESMRICalPropertyParam4NewLERK7TDesC16P14CESMRICalValue @ 36 NONAME
	_ZN22CESMRICalPropertyParam4NewLERK7TDesC16S2_ @ 37 NONAME
	_ZN22CESMRICalPropertyParam5NewLCERK7TDesC16P14CESMRICalValue @ 38 NONAME
	_ZN22CESMRICalPropertyParam5NewLCERK7TDesC16S2_ @ 39 NONAME
	_ZN22CESMRICalPropertyParam9AddValueLEP14CESMRICalValue @ 40 NONAME
	_ZN22CESMRICalPropertyParam9AddValueLERK7TDesC16 @ 41 NONAME
	_ZN9CESMRICal10SetMethodLEN13CESMRICalBase11TICalMethodE @ 42 NONAME
	_ZN9CESMRICal12ExternalizeLER12RWriteStream @ 43 NONAME
	_ZN9CESMRICal4NewLEv @ 44 NONAME
	_ZN9CESMRICal5NewLCEv @ 45 NONAME
	_ZNK13CESMRICalBase10ComponentsEv @ 46 NONAME
	_ZNK13CESMRICalBase10PropertiesEv @ 47 NONAME
	_ZNK13CESMRICalBase11TypeStringLEv @ 48 NONAME
	_ZNK13CESMRICalBase12FindPropertyERK7TDesC16 @ 49 NONAME
	_ZNK13CESMRICalBase15ComponentExistsENS_18TICalComponentTypeE @ 50 NONAME
	_ZNK13CESMRICalBase4TypeEv @ 51 NONAME
	_ZNK14CESMRICalValue10GetPeriodLER5TTimeRNS_13TTimeZoneTypeES1_S3_ @ 52 NONAME
	_ZNK14CESMRICalValue10UtcOffsetLEv @ 53 NONAME
	_ZNK14CESMRICalValue12GetDateTimeLER5TTimeRNS_13TTimeZoneTypeEi @ 54 NONAME
	_ZNK14CESMRICalValue18GetRecurrenceRuleLER13RPointerArrayI20CESMRICalRuleSegmentE @ 55 NONAME
	_ZNK14CESMRICalValue5TextLEv @ 56 NONAME
	_ZNK14CESMRICalValue6MonthLEv @ 57 NONAME
	_ZNK14CESMRICalValue7GetDayLER4TDayRi @ 58 NONAME
	_ZNK14CESMRICalValue8BinaryLCEv @ 59 NONAME
	_ZNK14CESMRICalValue8BooleanLEv @ 60 NONAME
	_ZNK14CESMRICalValue8GetDateLER5TTime @ 61 NONAME
	_ZNK14CESMRICalValue8GetTimeLER5TTimeRNS_13TTimeZoneTypeE @ 62 NONAME
	_ZNK14CESMRICalValue8IntegerLEv @ 63 NONAME
	_ZNK14CESMRICalValue9DurationLEv @ 64 NONAME
	_ZNK14CESMRICalValue9GetFloatLERd @ 65 NONAME
	_ZNK15CESMRICalParser8CalCountEv @ 66 NONAME
	_ZNK17CESMRICalProperty10ParametersEv @ 67 NONAME
	_ZNK17CESMRICalProperty4TypeEv @ 68 NONAME
	_ZNK17CESMRICalProperty6ValuesEv @ 69 NONAME
	_ZNK17CESMRICalProperty9FindParamERK7TDesC16 @ 70 NONAME
	_ZNK20CESMRICalRuleSegment4TypeEv @ 71 NONAME
	_ZNK20CESMRICalRuleSegment5FreqLEv @ 72 NONAME
	_ZNK20CESMRICalRuleSegment6ValuesEv @ 73 NONAME
	_ZNK20CESMRICalRuleSegment8TypeNameEv @ 74 NONAME
	_ZNK22CESMRICalPropertyParam4TypeEv @ 75 NONAME
	_ZNK22CESMRICalPropertyParam6ValuesEv @ 76 NONAME
	_ZTI13CESMRICalBase @ 77 NONAME ; #<TI>#
	_ZTI13CESMRICalTodo @ 78 NONAME ; #<TI>#
	_ZTI14CESMRICalAlarm @ 79 NONAME ; #<TI>#
	_ZTI14CESMRICalEvent @ 80 NONAME ; #<TI>#
	_ZTI14CESMRICalValue @ 81 NONAME ; #<TI>#
	_ZTI15CESMRICalParser @ 82 NONAME ; #<TI>#
	_ZTI16CESMRICalJournal @ 83 NONAME ; #<TI>#
	_ZTI17CESMRICalFreeBusy @ 84 NONAME ; #<TI>#
	_ZTI17CESMRICalProperty @ 85 NONAME ; #<TI>#
	_ZTI17CESMRICalTimeZone @ 86 NONAME ; #<TI>#
	_ZTI18CESMRICalComponent @ 87 NONAME ; #<TI>#
	_ZTI20CESMRICalRuleSegment @ 88 NONAME ; #<TI>#
	_ZTI22CESMRICalPropertyParam @ 89 NONAME ; #<TI>#
	_ZTI25CESMRICalTimeZoneInterval @ 90 NONAME ; #<TI>#
	_ZTI26CESMRICalContentLineReader @ 91 NONAME ; #<TI>#
	_ZTI26CESMRICalContentLineWriter @ 92 NONAME ; #<TI>#
	_ZTI9CESMRICal @ 93 NONAME ; #<TI>#
	_ZTV13CESMRICalBase @ 94 NONAME ; #<VT>#
	_ZTV13CESMRICalTodo @ 95 NONAME ; #<VT>#
	_ZTV14CESMRICalAlarm @ 96 NONAME ; #<VT>#
	_ZTV14CESMRICalEvent @ 97 NONAME ; #<VT>#
	_ZTV14CESMRICalValue @ 98 NONAME ; #<VT>#
	_ZTV15CESMRICalParser @ 99 NONAME ; #<VT>#
	_ZTV16CESMRICalJournal @ 100 NONAME ; #<VT>#
	_ZTV17CESMRICalFreeBusy @ 101 NONAME ; #<VT>#
	_ZTV17CESMRICalProperty @ 102 NONAME ; #<VT>#
	_ZTV17CESMRICalTimeZone @ 103 NONAME ; #<VT>#
	_ZTV18CESMRICalComponent @ 104 NONAME ; #<VT>#
	_ZTV20CESMRICalRuleSegment @ 105 NONAME ; #<VT>#
	_ZTV22CESMRICalPropertyParam @ 106 NONAME ; #<VT>#
	_ZTV25CESMRICalTimeZoneInterval @ 107 NONAME ; #<VT>#
	_ZTV26CESMRICalContentLineReader @ 108 NONAME ; #<VT>#
	_ZTV26CESMRICalContentLineWriter @ 109 NONAME ; #<VT>#
	_ZTV9CESMRICal @ 110 NONAME ; #<VT>#

