EXPORTS
	?GetToRecipients@CFSMailMessageBase@@QAEAAV?$RPointerArray@VCFSMailAddress@@@@XZ @ 1 NONAME ; class RPointerArray<class CFSMailAddress> & CFSMailMessageBase::GetToRecipients(void)
	??1CEmailExtension@@UAE@XZ @ 2 NONAME ; CEmailExtension::~CEmailExtension(void)
	?GetTempDirL@CFSMailRequestHandler@@QAEAAVTDesC16@@XZ @ 3 NONAME ; class TDesC16 & CFSMailRequestHandler::GetTempDirL(void)
	?CancelAllRequestsL@CFSMailRequestHandler@@QAEXXZ @ 4 NONAME ; void CFSMailRequestHandler::CancelAllRequestsL(void)
	?SaveL@CFSMailMessagePart@@QAEXXZ @ 5 NONAME ; void CFSMailMessagePart::SaveL(void)
	?CreateMessageToSend@CFSMailBox@@QAEPAVCFSMailMessage@@XZ @ 6 NONAME ; class CFSMailMessage * CFSMailBox::CreateMessageToSend(void)
	?FindExtension@TEmailExtensions@@QBEHABVTUid@@@Z @ 7 NONAME ; int TEmailExtensions::FindExtension(class TUid const &) const
	?ClearBccRecipients@CFSMailMessageBase@@QAEXXZ @ 8 NONAME ; void CFSMailMessageBase::ClearBccRecipients(void)
	?SendMessageL@CFSMailBox@@QAEXAAVCFSMailMessage@@@Z @ 9 NONAME ; void CFSMailBox::SendMessageL(class CFSMailMessage &)
	?GetStandardFolderId@CFSMailBox@@QAE?AVTFSMailMsgId@@W4TFSFolderType@@@Z @ 10 NONAME ; class TFSMailMsgId CFSMailBox::GetStandardFolderId(enum TFSFolderType)
	?CancelSearch@CFSMailBox@@QAEXXZ @ 11 NONAME ; void CFSMailBox::CancelSearch(void)
	?ResetFlag@CFSMailMessageBase@@QAEXH@Z @ 12 NONAME ; void CFSMailMessageBase::ResetFlag(int)
	?ListMrusL@CFSMailBox@@QBEPAVMDesC16Array@@XZ @ 13 NONAME ; class MDesC16Array * CFSMailBox::ListMrusL(void) const
	?IsMRInfoProcessorSet@CFSMailBoxBase@@QAEHXZ @ 14 NONAME ; int CFSMailBoxBase::IsMRInfoProcessorSet(void)
	??1CFSMailFolderBase@@UAE@XZ @ 15 NONAME ; CFSMailFolderBase::~CFSMailFolderBase(void)
	??0TEmailExtensions@@QAE@XZ @ 16 NONAME ; TEmailExtensions::TEmailExtensions(void)
	?SetFolderType@CFSMailFolderBase@@QAEXW4TFSFolderType@@@Z @ 17 NONAME ; void CFSMailFolderBase::SetFolderType(enum TFSFolderType)
	?SetUnseenCount@CFSMailFolderBase@@QAEXI@Z @ 18 NONAME ; void CFSMailFolderBase::SetUnseenCount(unsigned int)
	?GetName@CFSMailBoxBase@@QBEAAVTDesC16@@XZ @ 19 NONAME ; class TDesC16 & CFSMailBoxBase::GetName(void) const
	?GetMailBoxStatus@CFSMailBox@@QAE?AW4TFSMailBoxStatus@@XZ @ 20 NONAME ; enum TFSMailBoxStatus CFSMailBox::GetMailBoxStatus(void)
	?AttachmentListL@CFSMailMessage@@QAEXAAV?$RPointerArray@VCFSMailMessagePart@@@@@Z @ 21 NONAME ; void CFSMailMessage::AttachmentListL(class RPointerArray<class CFSMailMessagePart> &)
	?SaveMessageL@CFSMailMessage@@QAEXXZ @ 22 NONAME ; void CFSMailMessage::SaveMessageL(void)
	?NewL@CFSMailBoxBase@@SAPAV1@VTFSMailMsgId@@@Z @ 23 NONAME ; class CFSMailBoxBase * CFSMailBoxBase::NewL(class TFSMailMsgId)
	?FetchMessagesPartsL@CFSMailMessagePart@@QAEHABV?$RArray@VTFSMailMsgId@@@@AAVMFSMailRequestObserver@@I@Z @ 24 NONAME ; int CFSMailMessagePart::FetchMessagesPartsL(class RArray<class TFSMailMsgId> const &, class MFSMailRequestObserver &, unsigned int)
	?SetReplyToAddress@CFSMailMessageBase@@QAEXPAVCFSMailAddress@@@Z @ 25 NONAME ; void CFSMailMessageBase::SetReplyToAddress(class CFSMailAddress *)
	?IsFlagSet@CFSMailMessageBase@@QBEHH@Z @ 26 NONAME ; int CFSMailMessageBase::IsFlagSet(int) const
	?NewL@CFSMailMessageBase@@SAPAV1@VTFSMailMsgId@@@Z @ 27 NONAME ; class CFSMailMessageBase * CFSMailMessageBase::NewL(class TFSMailMsgId)
	?AddPluginL@CFSMailRequestHandler@@QAEXVTUid@@PAVCFSMailPlugin@@@Z @ 28 NONAME ; void CFSMailRequestHandler::AddPluginL(class TUid, class CFSMailPlugin *)
	?SetContentDisposition@CFSMailMessagePart@@QAEXABVTDesC16@@@Z @ 29 NONAME ; void CFSMailMessagePart::SetContentDisposition(class TDesC16 const &)
	??1CFSMailMessageBase@@UAE@XZ @ 30 NONAME ; CFSMailMessageBase::~CFSMailMessageBase(void)
	?CurrentSyncState@CFSMailBox@@QBE?AW4TSSMailSyncState@@XZ @ 31 NONAME ; enum TSSMailSyncState CFSMailBox::CurrentSyncState(void) const
	?NewL@CFSMailFolderBase@@SAPAV1@VTFSMailMsgId@@@Z @ 32 NONAME ; class CFSMailFolderBase * CFSMailFolderBase::NewL(class TFSMailMsgId)
	?SetAttachmentNameL@CFSMailMessagePart@@QAEXABVTDesC16@@@Z @ 33 NONAME ; void CFSMailMessagePart::SetAttachmentNameL(class TDesC16 const &)
	?GetMessageCount@CFSMailFolderBase@@QBEIXZ @ 34 NONAME ; unsigned int CFSMailFolderBase::GetMessageCount(void) const
	?RemoveChildPartL@CFSMailMessagePart@@QAEXVTFSMailMsgId@@@Z @ 35 NONAME ; void CFSMailMessagePart::RemoveChildPartL(class TFSMailMsgId)
	?MoveMessagesL@CFSMailBox@@QAEXABV?$RArray@VTFSMailMsgId@@@@VTFSMailMsgId@@1@Z @ 36 NONAME ; void CFSMailBox::MoveMessagesL(class RArray<class TFSMailMsgId> const &, class TFSMailMsgId, class TFSMailMsgId)
	?GetFolderName@CFSMailFolderBase@@QBEAAVTDesC16@@XZ @ 37 NONAME ; class TDesC16 & CFSMailFolderBase::GetFolderName(void) const
	?GetDisplayName@CFSMailAddress@@QBEAAVTDesC16@@XZ @ 38 NONAME ; class TDesC16 & CFSMailAddress::GetDisplayName(void) const
	?SetSubject@CFSMailMessageBase@@QAEXABVTDesC16@@@Z @ 39 NONAME ; void CFSMailMessageBase::SetSubject(class TDesC16 const &)
	?CreateReplyMessage@CFSMailBox@@QAEPAVCFSMailMessage@@VTFSMailMsgId@@HABVTDesC16@@@Z @ 40 NONAME ; class CFSMailMessage * CFSMailBox::CreateReplyMessage(class TFSMailMsgId, int, class TDesC16 const &)
	?CopyContentFileL@CFSMailMessagePart@@QAEXABVTDesC16@@@Z @ 41 NONAME ; void CFSMailMessagePart::CopyContentFileL(class TDesC16 const &)
	??1CFSMailBoxBase@@UAE@XZ @ 42 NONAME ; CFSMailBoxBase::~CFSMailBoxBase(void)
	?RemoveContentL@CFSMailMessagePart@@QAEXXZ @ 43 NONAME ; void CFSMailMessagePart::RemoveContentL(void)
	?NewLC@CFSMailBox@@SAPAV1@VTFSMailMsgId@@@Z @ 44 NONAME ; class CFSMailBox * CFSMailBox::NewLC(class TFSMailMsgId)
	?GetParentFolderId@CFSMailFolderBase@@QBE?AVTFSMailMsgId@@XZ @ 45 NONAME ; class TFSMailMsgId CFSMailFolderBase::GetParentFolderId(void) const
	?ReleaseExtension@CFSMailMessageBase@@UAEXPAVCEmailExtension@@@Z @ 46 NONAME ; void CFSMailMessageBase::ReleaseExtension(class CEmailExtension *)
	?NewLC@CFSMailFolder@@SAPAV1@VTFSMailMsgId@@@Z @ 47 NONAME ; class CFSMailFolder * CFSMailFolder::NewLC(class TFSMailMsgId)
	?NewL@CFSMailAddress@@SAPAV1@XZ @ 48 NONAME ; class CFSMailAddress * CFSMailAddress::NewL(void)
	?IsMessageL@CFSMailMessagePart@@UBEHXZ @ 49 NONAME ; int CFSMailMessagePart::IsMessageL(void) const
	?Uid@CEmailExtension@@QBE?AVTUid@@XZ @ 50 NONAME ; class TUid CEmailExtension::Uid(void) const
	?GetContentToBufferL@CFSMailMessagePart@@QAEXAAVTDes16@@I@Z @ 51 NONAME ; void CFSMailMessagePart::GetContentToBufferL(class TDes16 &, unsigned int)
	?AddNewAttachmentL@CFSMailMessagePart@@QAEPAV1@ABVTDesC16@@VTFSMailMsgId@@0@Z @ 52 NONAME ; class CFSMailMessagePart * CFSMailMessagePart::AddNewAttachmentL(class TDesC16 const &, class TFSMailMsgId, class TDesC16 const &)
	?BlockCopyFromL@CFSMailFolderBase@@QAEXV?$RArray@W4TFSFolderType@@@@W4TFSMailBoxStatus@@@Z @ 53 NONAME ; void CFSMailFolderBase::BlockCopyFromL(class RArray<enum TFSFolderType>, enum TFSMailBoxStatus)
	?GetSender@CFSMailMessageBase@@QBEPAVCFSMailAddress@@XZ @ 54 NONAME ; class CFSMailAddress * CFSMailMessageBase::GetSender(void) const
	?ClearSearchResultCache@CFSMailBox@@QAEXXZ @ 55 NONAME ; void CFSMailBox::ClearSearchResultCache(void)
	?CancelRequestL@CFSMailRequestHandler@@QAEXH@Z @ 56 NONAME ; void CFSMailRequestHandler::CancelRequestL(int)
	?ExtensionL@CFSMailBox@@UAEPAVCEmailExtension@@ABVTUid@@@Z @ 57 NONAME ; class CEmailExtension * CFSMailBox::ExtensionL(class TUid const &)
	?GetMailBoxId@CFSMailMessageBase@@QBE?AVTFSMailMsgId@@XZ @ 58 NONAME ; class TFSMailMsgId CFSMailMessageBase::GetMailBoxId(void) const
	?ExtensionL@CExtendableEmail@@UAEPAVCEmailExtension@@ABVTUid@@@Z @ 59 NONAME ; class CEmailExtension * CExtendableEmail::ExtensionL(class TUid const &)
	?ListFolders@CFSMailBox@@QAEXVTFSMailMsgId@@AAV?$RPointerArray@VCFSMailFolder@@@@@Z @ 60 NONAME ; void CFSMailBox::ListFolders(class TFSMailMsgId, class RPointerArray<class CFSMailFolder> &)
	?ContentDescription@CFSMailMessagePart@@QAEABVTDesC16@@XZ @ 61 NONAME ; class TDesC16 const & CFSMailMessagePart::ContentDescription(void)
	?GetFolderType@CFSMailFolderBase@@QBE?AW4TFSFolderType@@XZ @ 62 NONAME ; enum TFSFolderType CFSMailFolderBase::GetFolderType(void) const
	?GetEmailAddress@CFSMailAddress@@QBEAAVTDesC16@@XZ @ 63 NONAME ; class TDesC16 & CFSMailAddress::GetEmailAddress(void) const
	?NewL@CFSMailBox@@SAPAV1@VTFSMailMsgId@@@Z @ 64 NONAME ; class CFSMailBox * CFSMailBox::NewL(class TFSMailMsgId)
	?FetchMessagesL@CFSMailFolder@@QAEHABV?$RArray@VTFSMailMsgId@@@@W4TFSMailDetails@@AAVMFSMailRequestObserver@@@Z @ 65 NONAME ; int CFSMailFolder::FetchMessagesL(class RArray<class TFSMailMsgId> const &, enum TFSMailDetails, class MFSMailRequestObserver &)
	?ContentID@CFSMailMessagePart@@QAEABVTDesC16@@XZ @ 66 NONAME ; class TDesC16 const & CFSMailMessagePart::ContentID(void)
	??1CFSMailFolder@@UAE@XZ @ 67 NONAME ; CFSMailFolder::~CFSMailFolder(void)
	?IsRelatedTo@CFSMailMessageBase@@QBE?AVTFSMailMsgId@@XZ @ 68 NONAME ; class TFSMailMsgId CFSMailMessageBase::IsRelatedTo(void) const
	?GetContentFileL@CFSMailMessagePart@@QAE?AVRFile@@XZ @ 69 NONAME ; class RFile CFSMailMessagePart::GetContentFileL(void)
	?GetCCRecipients@CFSMailMessageBase@@QAEAAV?$RPointerArray@VCFSMailAddress@@@@XZ @ 70 NONAME ; class RPointerArray<class CFSMailAddress> & CFSMailMessageBase::GetCCRecipients(void)
	?AppendBCCRecipient@CFSMailMessageBase@@QAEXPAVCFSMailAddress@@@Z @ 71 NONAME ; void CFSMailMessageBase::AppendBCCRecipient(class CFSMailAddress *)
	?ExtensionL@CFSMailFolder@@UAEPAVCEmailExtension@@ABVTUid@@@Z @ 72 NONAME ; class CEmailExtension * CFSMailFolder::ExtensionL(class TUid const &)
	?IsMRInfoSet@CFSMailMessagePart@@QAEHXZ @ 73 NONAME ; int CFSMailMessagePart::IsMRInfoSet(void)
	??1CFSMailIterator@@UAE@XZ @ 74 NONAME ; CFSMailIterator::~CFSMailIterator(void)
	?RemoveDownLoadedAttachmentsL@CFSMailMessagePart@@QAEXXZ @ 75 NONAME ; void CFSMailMessagePart::RemoveDownLoadedAttachmentsL(void)
	?IsMessageL@CFSMailMessage@@UBEHXZ @ 76 NONAME ; int CFSMailMessage::IsMessageL(void) const
	?SetContentClass@CFSMailMessagePart@@QAEXABVTDesC16@@@Z @ 77 NONAME ; void CFSMailMessagePart::SetContentClass(class TDesC16 const &)
	?GetFolderId@CFSMailMessageBase@@QBE?AVTFSMailMsgId@@XZ @ 78 NONAME ; class TFSMailMsgId CFSMailMessageBase::GetFolderId(void) const
	?ReadOnlyPartSize@CFSMailMessagePart@@QBEIXZ @ 79 NONAME ; unsigned int CFSMailMessagePart::ReadOnlyPartSize(void) const
	?GetConnectionId@CFSMailBox@@QAEHAAK@Z @ 80 NONAME ; int CFSMailBox::GetConnectionId(unsigned long &)
	?BlockMoveFromL@CFSMailFolderBase@@QAEXV?$RArray@W4TFSFolderType@@@@W4TFSMailBoxStatus@@@Z @ 81 NONAME ; void CFSMailFolderBase::BlockMoveFromL(class RArray<enum TFSFolderType>, enum TFSMailBoxStatus)
	?ContentDisposition@CFSMailMessagePart@@QAEABVTDesC16@@XZ @ 82 NONAME ; class TDesC16 const & CFSMailMessagePart::ContentDisposition(void)
	?RemoveDownLoadedAttachmentsL@CFSMailFolder@@QAEXXZ @ 83 NONAME ; void CFSMailFolder::RemoveDownLoadedAttachmentsL(void)
	?NewLC@CFSMailAddress@@SAPAV1@XZ @ 84 NONAME ; class CFSMailAddress * CFSMailAddress::NewLC(void)
	?NewL@CFSMailRequestHandler@@SAPAV1@AAV?$RPointerArray@VCImplementationInformation@@@@AAV?$RPointerArray@VCFSMailPlugin@@@@@Z @ 85 NONAME ; class CFSMailRequestHandler * CFSMailRequestHandler::NewL(class RPointerArray<class CImplementationInformation> &, class RPointerArray<class CFSMailPlugin> &)
	?FetchLoadState@CFSMailMessagePart@@QBE?AW4TFSPartFetchState@@XZ @ 86 NONAME ; enum TFSPartFetchState CFSMailMessagePart::FetchLoadState(void) const
	?SetDisplayName@CFSMailAddress@@QAEXABVTDesC16@@@Z @ 87 NONAME ; void CFSMailAddress::SetDisplayName(class TDesC16 const &)
	?SetMailBoxId@CFSMailMessageBase@@QAEXVTFSMailMsgId@@@Z @ 88 NONAME ; void CFSMailMessageBase::SetMailBoxId(class TFSMailMsgId)
	?RequestHandler@CFSMailMessageBase@@QAEAAVCFSMailRequestHandler@@XZ @ 89 NONAME ; class CFSMailRequestHandler & CFSMailMessageBase::RequestHandler(void)
	?ContentTypeMatches@CFSMailMessagePart@@QAEHABVTDesC16@@@Z @ 90 NONAME ; int CFSMailMessagePart::ContentTypeMatches(class TDesC16 const &)
	?ReleaseExtension@CFSMailFolder@@UAEXPAVCEmailExtension@@@Z @ 91 NONAME ; void CFSMailFolder::ReleaseExtension(class CEmailExtension *)
	?GetFlags@CFSMailMessageBase@@QBEHXZ @ 92 NONAME ; int CFSMailMessageBase::GetFlags(void) const
	?CopyMessagesL@CFSMailBox@@QAEXABV?$RArray@VTFSMailMsgId@@@@AAV2@VTFSMailMsgId@@2@Z @ 93 NONAME ; void CFSMailBox::CopyMessagesL(class RArray<class TFSMailMsgId> const &, class RArray<class TFSMailMsgId> &, class TFSMailMsgId, class TFSMailMsgId)
	?GetBCCRecipients@CFSMailMessageBase@@QAEAAV?$RPointerArray@VCFSMailAddress@@@@XZ @ 94 NONAME ; class RPointerArray<class CFSMailAddress> & CFSMailMessageBase::GetBCCRecipients(void)
	?IsConnectionAllowedWhenRoaming@CFSMailBox@@QAEHAAH@Z @ 95 NONAME ; int CFSMailBox::IsConnectionAllowedWhenRoaming(int &)
	?ClearToRecipients@CFSMailMessageBase@@QAEXXZ @ 96 NONAME ; void CFSMailMessageBase::ClearToRecipients(void)
	?CopyMessageAsChildPartL@CFSMailMessagePart@@QAEPAV1@VTFSMailMsgId@@PAVCFSMailMessage@@@Z @ 97 NONAME ; class CFSMailMessagePart * CFSMailMessagePart::CopyMessageAsChildPartL(class TFSMailMsgId, class CFSMailMessage *)
	?ReleaseExtension@CExtendableEmail@@UAEXPAVCEmailExtension@@@Z @ 98 NONAME ; void CExtendableEmail::ReleaseExtension(class CEmailExtension *)
	?ChildPartL@CFSMailMessagePart@@QAEPAV1@VTFSMailMsgId@@@Z @ 99 NONAME ; class CFSMailMessagePart * CFSMailMessagePart::ChildPartL(class TFSMailMsgId)
	?GetId@CFSMailBoxBase@@QBE?AVTFSMailMsgId@@XZ @ 100 NONAME ; class TFSMailMsgId CFSMailBoxBase::GetId(void) const
	?PreviousL@CFSMailIterator@@UAEHVTFSMailMsgId@@IAAV?$RPointerArray@VCFSMailMessage@@@@@Z @ 101 NONAME ; int CFSMailIterator::PreviousL(class TFSMailMsgId, unsigned int, class RPointerArray<class CFSMailMessage> &)
	?RefreshNowL@CFSMailBox@@QAEHXZ @ 102 NONAME ; int CFSMailBox::RefreshNowL(void)
	?CancelSyncL@CFSMailBox@@QAEXXZ @ 103 NONAME ; void CFSMailBox::CancelSyncL(void)
	?ContentDispositionParameters@CFSMailMessagePart@@QAEAAVCDesC16Array@@XZ @ 104 NONAME ; class CDesC16Array & CFSMailMessagePart::ContentDispositionParameters(void)
	?ListFolders@CFSMailBox@@QAEAAV?$RPointerArray@VCFSMailFolder@@@@XZ @ 105 NONAME ; class RPointerArray<class CFSMailFolder> & CFSMailBox::ListFolders(void)
	?GetSettingsUid@CFSMailBoxBase@@QAE?BVTUid@@XZ @ 106 NONAME ; class TUid const CFSMailBoxBase::GetSettingsUid(void)
	??1CFSMailMessage@@UAE@XZ @ 107 NONAME ; CFSMailMessage::~CFSMailMessage(void)
	?GetStatus@CFSMailBoxBase@@QBE?AW4TFSMailBoxStatus@@XZ @ 108 NONAME ; enum TFSMailBoxStatus CFSMailBoxBase::GetStatus(void) const
	?SetName@CFSMailBoxBase@@QAEXABVTDesC16@@@Z @ 109 NONAME ; void CFSMailBoxBase::SetName(class TDesC16 const &)
	?GoOfflineL@CFSMailBox@@QAEXXZ @ 110 NONAME ; void CFSMailBox::GoOfflineL(void)
	?PlainTextBodyPartL@CFSMailMessage@@QAEPAVCFSMailMessagePart@@XZ @ 111 NONAME ; class CFSMailMessagePart * CFSMailMessage::PlainTextBodyPartL(void)
	?CleanTempDirL@CFSMailRequestHandler@@QAEXXZ @ 112 NONAME ; void CFSMailRequestHandler::CleanTempDirL(void)
	?SupportsMoveFromL@CFSMailFolder@@QAEHW4TFSFolderType@@@Z @ 113 NONAME ; int CFSMailFolder::SupportsMoveFromL(enum TFSFolderType)
	?NewChildPartL@CFSMailMessagePart@@QAEPAV1@VTFSMailMsgId@@ABVTDesC16@@@Z @ 114 NONAME ; class CFSMailMessagePart * CFSMailMessagePart::NewChildPartL(class TFSMailMsgId, class TDesC16 const &)
	?SetFolderId@CFSMailMessageBase@@QAEXVTFSMailMsgId@@@Z @ 115 NONAME ; void CFSMailMessageBase::SetFolderId(class TFSMailMsgId)
	?Remove@TEmailExtensions@@QAEXPBVCEmailExtension@@@Z @ 116 NONAME ; void TEmailExtensions::Remove(class CEmailExtension const *)
	?AddNewAttachmentL@CFSMailMessage@@QAEPAVCFSMailMessagePart@@AAVRFile@@ABVTDesC8@@@Z @ 117 NONAME ; class CFSMailMessagePart * CFSMailMessage::AddNewAttachmentL(class RFile &, class TDesC8 const &)
	?ConstructL@CFSMailFolderBase@@AAEXVTFSMailMsgId@@@Z @ 118 NONAME ; void CFSMailFolderBase::ConstructL(class TFSMailMsgId)
	?GetMRInfo@CFSMailMessagePart@@QAEAAVMMRInfoObject@@XZ @ 119 NONAME ; class MMRInfoObject & CFSMailMessagePart::GetMRInfo(void)
	?GetDate@CFSMailMessageBase@@QBE?AVTTime@@XZ @ 120 NONAME ; class TTime CFSMailMessageBase::GetDate(void) const
	?SetRelatedTo@CFSMailMessageBase@@QAEXVTFSMailMsgId@@@Z @ 121 NONAME ; void CFSMailMessageBase::SetRelatedTo(class TFSMailMsgId)
	?PreviousL@CFSMailIterator@@UAEHABVTDesC16@@IAAV?$RPointerArray@VCFSMailMessage@@@@@Z @ 122 NONAME ; int CFSMailIterator::PreviousL(class TDesC16 const &, unsigned int, class RPointerArray<class CFSMailMessage> &)
	?ReleaseExtension@CFSMailBox@@UAEXPAVCEmailExtension@@@Z @ 123 NONAME ; void CFSMailBox::ReleaseExtension(class CEmailExtension *)
	?CreateForwardMessage@CFSMailBox@@QAEPAVCFSMailMessage@@VTFSMailMsgId@@ABVTDesC16@@@Z @ 124 NONAME ; class CFSMailMessage * CFSMailBox::CreateForwardMessage(class TFSMailMsgId, class TDesC16 const &)
	?SetStatus@CFSMailBoxBase@@QAEXW4TFSMailBoxStatus@@@Z @ 125 NONAME ; void CFSMailBoxBase::SetStatus(enum TFSMailBoxStatus)
	?SetContentIDL@CFSMailMessagePart@@QAEXABVTDesC16@@@Z @ 126 NONAME ; void CFSMailMessagePart::SetContentIDL(class TDesC16 const &)
	?NewLC@CFSMailMessage@@SAPAV1@VTFSMailMsgId@@@Z @ 127 NONAME ; class CFSMailMessage * CFSMailMessage::NewLC(class TFSMailMsgId)
	?GetRCLInfo@CFSMailBoxBase@@QAEXAAVTUid@@AAI@Z @ 128 NONAME ; void CFSMailBoxBase::GetRCLInfo(class TUid &, unsigned int &)
	?MRInfoProcessorL@CFSMailBoxBase@@QAEAAVMMRInfoProcessor@@XZ @ 129 NONAME ; class MMRInfoProcessor & CFSMailBoxBase::MRInfoProcessorL(void)
	?GetUnreadCount@CFSMailFolderBase@@QBEIXZ @ 130 NONAME ; unsigned int CFSMailFolderBase::GetUnreadCount(void) const
	?SetSender@CFSMailMessageBase@@QAEXPAVCFSMailAddress@@@Z @ 131 NONAME ; void CFSMailMessageBase::SetSender(class CFSMailAddress *)
	?SetMailBoxId@CFSMailFolderBase@@QAEXVTFSMailMsgId@@@Z @ 132 NONAME ; void CFSMailFolderBase::SetMailBoxId(class TFSMailMsgId)
	?OwnMailAddress@CFSMailBoxBase@@QAEAAVCFSMailAddress@@XZ @ 133 NONAME ; class CFSMailAddress & CFSMailBoxBase::OwnMailAddress(void)
	?SetCredentialsL@CFSMailBox@@QAEXABVTDesC16@@0@Z @ 134 NONAME ; void CFSMailBox::SetCredentialsL(class TDesC16 const &, class TDesC16 const &)
	?SetContent@CFSMailMessagePart@@QAEXAAVTDes16@@@Z @ 135 NONAME ; void CFSMailMessagePart::SetContent(class TDes16 &)
	?RemoveMessageL@CFSMailFolder@@QAEXVTFSMailMsgId@@@Z @ 136 NONAME ; void CFSMailFolder::RemoveMessageL(class TFSMailMsgId)
	?CreateMessageFromFileL@CFSMailBox@@QAEPAVCFSMailMessage@@ABVRFile@@@Z @ 137 NONAME ; class CFSMailMessage * CFSMailBox::CreateMessageFromFileL(class RFile const &)
	?NewLC@CFSMailMessageBase@@SAPAV1@VTFSMailMsgId@@@Z @ 138 NONAME ; class CFSMailMessageBase * CFSMailMessageBase::NewLC(class TFSMailMsgId)
	?CompleteRequest@CFSMailRequestHandler@@QAEXH@Z @ 139 NONAME ; void CFSMailRequestHandler::CompleteRequest(int)
	?GetFolderId@CFSMailFolderBase@@QBE?AVTFSMailMsgId@@XZ @ 140 NONAME ; class TFSMailMsgId CFSMailFolderBase::GetFolderId(void) const
	?SetMRInfo@CFSMailMessagePart@@QAEXPAVMMRInfoObject@@@Z @ 141 NONAME ; void CFSMailMessagePart::SetMRInfo(class MMRInfoObject *)
	??0CFSMailRequestHandler@@IAE@XZ @ 142 NONAME ; CFSMailRequestHandler::CFSMailRequestHandler(void)
	?GoOnlineL@CFSMailBox@@QAEXXZ @ 143 NONAME ; void CFSMailBox::GoOnlineL(void)
	?SetMessageCount@CFSMailFolderBase@@QAEXI@Z @ 144 NONAME ; void CFSMailFolderBase::SetMessageCount(unsigned int)
	?GetContentType@CFSMailMessagePart@@QAEABVTDesC16@@XZ @ 145 NONAME ; class TDesC16 const & CFSMailMessagePart::GetContentType(void)
	?NewLC@CFSMailMessagePart@@SAPAV1@VTFSMailMsgId@@0@Z @ 146 NONAME ; class CFSMailMessagePart * CFSMailMessagePart::NewLC(class TFSMailMsgId, class TFSMailMsgId)
	??1CFSMailMessagePart@@UAE@XZ @ 147 NONAME ; CFSMailMessagePart::~CFSMailMessagePart(void)
	??1TEmailExtensions@@QAE@XZ @ 148 NONAME ; TEmailExtensions::~TEmailExtensions(void)
	?HtmlBodyPartL@CFSMailMessage@@QAEPAVCFSMailMessagePart@@XZ @ 149 NONAME ; class CFSMailMessagePart * CFSMailMessage::HtmlBodyPartL(void)
	?ContentTypeParameters@CFSMailMessagePart@@QAEAAVCDesC16Array@@XZ @ 150 NONAME ; class CDesC16Array & CFSMailMessagePart::ContentTypeParameters(void)
	??1CFSMailAddress@@UAE@XZ @ 151 NONAME ; CFSMailAddress::~CFSMailAddress(void)
	?SetParentFolderId@CFSMailFolderBase@@QAEXVTFSMailMsgId@@@Z @ 152 NONAME ; void CFSMailFolderBase::SetParentFolderId(class TFSMailMsgId)
	?AttachmentNameL@CFSMailMessagePart@@QAEAAVTDesC16@@XZ @ 153 NONAME ; class TDesC16 & CFSMailMessagePart::AttachmentNameL(void)
	?SetContentDescription@CFSMailMessagePart@@QAEXABVTDesC16@@@Z @ 154 NONAME ; void CFSMailMessagePart::SetContentDescription(class TDesC16 const &)
	?GetContentClass@CFSMailMessagePart@@QAEABVTDesC16@@XZ @ 155 NONAME ; class TDesC16 const & CFSMailMessagePart::GetContentClass(void)
	?SetOwnMailAddressL@CFSMailBoxBase@@QAEXPAVCFSMailAddress@@@Z @ 156 NONAME ; void CFSMailBoxBase::SetOwnMailAddressL(class CFSMailAddress *)
	?GetSubFolderCount@CFSMailFolderBase@@QBEIXZ @ 157 NONAME ; unsigned int CFSMailFolderBase::GetSubFolderCount(void) const
	?SetMRInfoProcessorL@CFSMailBoxBase@@QAEXPAVMMRInfoProcessor@@@Z @ 158 NONAME ; void CFSMailBoxBase::SetMRInfoProcessorL(class MMRInfoProcessor *)
	?FetchMessagePartL@CFSMailMessagePart@@QAEHVTFSMailMsgId@@AAVMFSMailRequestObserver@@I@Z @ 159 NONAME ; int CFSMailMessagePart::FetchMessagePartL(class TFSMailMsgId, class MFSMailRequestObserver &, unsigned int)
	?ContentSize@CFSMailMessagePart@@QBEIXZ @ 160 NONAME ; unsigned int CFSMailMessagePart::ContentSize(void) const
	?InitAsyncRequestL@CFSMailRequestHandler@@QAE?AVTFSPendingRequest@@VTUid@@AAVMFSMailRequestObserver@@@Z @ 161 NONAME ; class TFSPendingRequest CFSMailRequestHandler::InitAsyncRequestL(class TUid, class MFSMailRequestObserver &)
	?SetContentFromFileL@CFSMailMessagePart@@QAEXABVTDesC16@@@Z @ 162 NONAME ; void CFSMailMessagePart::SetContentFromFileL(class TDesC16 const &)
	?GetBrandingIdL@CFSMailBox@@QAEAAVTDesC16@@XZ @ 163 NONAME ; class TDesC16 & CFSMailBox::GetBrandingIdL(void)
	?NewLC@CFSMailRequestHandler@@SAPAV1@AAV?$RPointerArray@VCImplementationInformation@@@@AAV?$RPointerArray@VCFSMailPlugin@@@@@Z @ 164 NONAME ; class CFSMailRequestHandler * CFSMailRequestHandler::NewLC(class RPointerArray<class CImplementationInformation> &, class RPointerArray<class CFSMailPlugin> &)
	?FindBodyPartL@CFSMailMessagePart@@QAEPAV1@ABVTDesC16@@@Z @ 165 NONAME ; class CFSMailMessagePart * CFSMailMessagePart::FindBodyPartL(class TDesC16 const &)
	?NewL@CFSMailFolder@@SAPAV1@VTFSMailMsgId@@@Z @ 166 NONAME ; class CFSMailFolder * CFSMailFolder::NewL(class TFSMailMsgId)
	?SetFetchedContentSize@CFSMailMessagePart@@QAEXI@Z @ 167 NONAME ; void CFSMailMessagePart::SetFetchedContentSize(unsigned int)
	?SetMessagePartsStatus@CFSMailMessagePart@@QAEXW4TFSPartFetchState@@@Z @ 168 NONAME ; void CFSMailMessagePart::SetMessagePartsStatus(enum TFSPartFetchState)
	?SearchL@CFSMailBox@@QAEXABV?$RPointerArray@VTDesC16@@@@ABVTFSMailSortCriteria@@AAVMFSMailBoxSearchObserver@@@Z @ 169 NONAME ; void CFSMailBox::SearchL(class RPointerArray<class TDesC16> const &, class TFSMailSortCriteria const &, class MFSMailBoxSearchObserver &)
	?SetContentType@CFSMailMessagePart@@QAEXABVTDesC16@@@Z @ 170 NONAME ; void CFSMailMessagePart::SetContentType(class TDesC16 const &)
	?NextL@CFSMailIterator@@UAEHABVTDesC16@@IAAV?$RPointerArray@VCFSMailMessage@@@@@Z @ 171 NONAME ; int CFSMailIterator::NextL(class TDesC16 const &, unsigned int, class RPointerArray<class CFSMailMessage> &)
	?ListMessagesL@CFSMailFolder@@QAEPAVMFSMailIterator@@W4TFSMailDetails@@ABV?$RArray@VTFSMailSortCriteria@@@@@Z @ 172 NONAME ; class MFSMailIterator * CFSMailFolder::ListMessagesL(enum TFSMailDetails, class RArray<class TFSMailSortCriteria> const &)
	?NewLC@CFSMailBoxBase@@SAPAV1@VTFSMailMsgId@@@Z @ 173 NONAME ; class CFSMailBoxBase * CFSMailBoxBase::NewLC(class TFSMailMsgId)
	?AppendAttachmentsL@CFSMailMessagePart@@QAEXAAV?$RPointerArray@VCFSMailMessagePart@@@@@Z @ 174 NONAME ; void CFSMailMessagePart::AppendAttachmentsL(class RPointerArray<class CFSMailMessagePart> &)
	?GetPluginByUid@CFSMailRequestHandler@@UAEPAVCFSMailPlugin@@VTFSMailMsgId@@@Z @ 175 NONAME ; class CFSMailPlugin * CFSMailRequestHandler::GetPluginByUid(class TFSMailMsgId)
	?SetFolderName@CFSMailFolderBase@@QAEXABVTDesC16@@@Z @ 176 NONAME ; void CFSMailFolderBase::SetFolderName(class TDesC16 const &)
	?AppendToRecipient@CFSMailMessageBase@@QAEXPAVCFSMailAddress@@@Z @ 177 NONAME ; void CFSMailMessageBase::AppendToRecipient(class CFSMailAddress *)
	?AddNewAttachmentL@CFSMailMessage@@QAEPAVCFSMailMessagePart@@ABVTDesC16@@VTFSMailMsgId@@@Z @ 178 NONAME ; class CFSMailMessagePart * CFSMailMessage::AddNewAttachmentL(class TDesC16 const &, class TFSMailMsgId)
	?SupportsCopyFromL@CFSMailFolder@@QAEHW4TFSFolderType@@@Z @ 179 NONAME ; int CFSMailFolder::SupportsCopyFromL(enum TFSFolderType)
	?SetSettingsUid@CFSMailBoxBase@@QAEXVTUid@@@Z @ 180 NONAME ; void CFSMailBoxBase::SetSettingsUid(class TUid)
	??0CEmailExtension@@IAE@ABVTUid@@@Z @ 181 NONAME ; CEmailExtension::CEmailExtension(class TUid const &)
	?GetUnseenCount@CFSMailFolderBase@@QBEIXZ @ 182 NONAME ; unsigned int CFSMailFolderBase::GetUnseenCount(void) const
	?SetReadOnlyPartSize@CFSMailMessagePart@@QAEXI@Z @ 183 NONAME ; void CFSMailMessagePart::SetReadOnlyPartSize(unsigned int)
	?SetDate@CFSMailMessageBase@@QAEXVTTime@@@Z @ 184 NONAME ; void CFSMailMessageBase::SetDate(class TTime)
	?NewL@CFSMailMessage@@SAPAV1@VTFSMailMsgId@@@Z @ 185 NONAME ; class CFSMailMessage * CFSMailMessage::NewL(class TFSMailMsgId)
	?SetEmailAddress@CFSMailAddress@@QAEXABVTDesC16@@@Z @ 186 NONAME ; void CFSMailAddress::SetEmailAddress(class TDesC16 const &)
	?GetLastSyncStatusL@CFSMailBox@@QAE?AVTFSProgress@@XZ @ 187 NONAME ; class TFSProgress CFSMailBox::GetLastSyncStatusL(void)
	?NextL@CFSMailIterator@@UAEHVTFSMailMsgId@@IAAV?$RPointerArray@VCFSMailMessage@@@@@Z @ 188 NONAME ; int CFSMailIterator::NextL(class TFSMailMsgId, unsigned int, class RPointerArray<class CFSMailMessage> &)
	?ConstructL@CFSMailMessageBase@@AAEXVTFSMailMsgId@@@Z @ 189 NONAME ; void CFSMailMessageBase::ConstructL(class TFSMailMsgId)
	?SetUnreadCount@CFSMailFolderBase@@QAEXI@Z @ 190 NONAME ; void CFSMailFolderBase::SetUnreadCount(unsigned int)
	?ChildPartsL@CFSMailMessagePart@@QAEXAAV?$RPointerArray@VCFSMailMessagePart@@@@@Z @ 191 NONAME ; void CFSMailMessagePart::ChildPartsL(class RPointerArray<class CFSMailMessagePart> &)
	?SetRCLInfo@CFSMailBoxBase@@QAEXVTUid@@I@Z @ 192 NONAME ; void CFSMailBoxBase::SetRCLInfo(class TUid, unsigned int)
	?NewLC@CFSMailFolderBase@@SAPAV1@VTFSMailMsgId@@@Z @ 193 NONAME ; class CFSMailFolderBase * CFSMailFolderBase::NewLC(class TFSMailMsgId)
	?AppendCCRecipient@CFSMailMessageBase@@QAEXPAVCFSMailAddress@@@Z @ 194 NONAME ; void CFSMailMessageBase::AppendCCRecipient(class CFSMailAddress *)
	?HasCapability@CFSMailBox@@QBEHW4TFSMailBoxCapabilities@@@Z @ 195 NONAME ; int CFSMailBox::HasCapability(enum TFSMailBoxCapabilities) const
	?GetMessageId@CFSMailMessageBase@@QBE?AVTFSMailMsgId@@XZ @ 196 NONAME ; class TFSMailMsgId CFSMailMessageBase::GetMessageId(void) const
	?GetSubject@CFSMailMessageBase@@QBEAAVTDesC16@@XZ @ 197 NONAME ; class TDesC16 & CFSMailMessageBase::GetSubject(void) const
	?NewL@CFSMailIterator@@SAPAV1@AAVMFSMailIterator@@PAVCFSMailRequestHandler@@@Z @ 198 NONAME ; class CFSMailIterator * CFSMailIterator::NewL(class MFSMailIterator &, class CFSMailRequestHandler *)
	?RefreshNowL@CFSMailBox@@QAEHAAVMFSMailRequestObserver@@@Z @ 199 NONAME ; int CFSMailBox::RefreshNowL(class MFSMailRequestObserver &)
	?Extension@TEmailExtensions@@QBEPAVCEmailExtension@@H@Z @ 200 NONAME ; class CEmailExtension * TEmailExtensions::Extension(int) const
	??1CFSMailRequestHandler@@UAE@XZ @ 201 NONAME ; CFSMailRequestHandler::~CFSMailRequestHandler(void)
	?SetSubFolderCount@CFSMailFolderBase@@QAEXI@Z @ 202 NONAME ; void CFSMailFolderBase::SetSubFolderCount(unsigned int)
	?AddL@TEmailExtensions@@QAEXPAVCEmailExtension@@@Z @ 203 NONAME ; void TEmailExtensions::AddL(class CEmailExtension *)
	?ClearCcRecipients@CFSMailMessageBase@@QAEXXZ @ 204 NONAME ; void CFSMailMessageBase::ClearCcRecipients(void)
	?GetPartId@CFSMailMessagePart@@QBE?AVTFSMailMsgId@@XZ @ 205 NONAME ; class TFSMailMsgId CFSMailMessagePart::GetPartId(void) const
	?RemoveDownLoadedAttachmentsL@CFSMailBox@@QAEXXZ @ 206 NONAME ; void CFSMailBox::RemoveDownLoadedAttachmentsL(void)
	?ExtensionL@CFSMailMessageBase@@UAEPAVCEmailExtension@@ABVTUid@@@Z @ 207 NONAME ; class CEmailExtension * CFSMailMessageBase::ExtensionL(class TUid const &)
	?GetReplyToAddress@CFSMailMessageBase@@QAEABVCFSMailAddress@@XZ @ 208 NONAME ; class CFSMailAddress const & CFSMailMessageBase::GetReplyToAddress(void)
	?GetMailBoxId@CFSMailFolderBase@@QBE?AVTFSMailMsgId@@XZ @ 209 NONAME ; class TFSMailMsgId CFSMailFolderBase::GetMailBoxId(void) const
	?SearchL@CFSMailBox@@QAEXABV?$RPointerArray@VTDesC16@@@@ABVTFSMailSortCriteria@@AAVMFSMailBoxSearchObserver@@V?$RArray@VTFSMailMsgId@@@@@Z @ 210 NONAME ; void CFSMailBox::SearchL(class RPointerArray<class TDesC16> const &, class TFSMailSortCriteria const &, class MFSMailBoxSearchObserver &, class RArray<class TFSMailMsgId>)
	??1CFSMailBox@@UAE@XZ @ 211 NONAME ; CFSMailBox::~CFSMailBox(void)
	?FetchedContentSize@CFSMailMessagePart@@QBEIXZ @ 212 NONAME ; unsigned int CFSMailMessagePart::FetchedContentSize(void) const
	?GetSubFoldersL@CFSMailFolder@@QAEXAAV?$RPointerArray@VCFSMailFolder@@@@@Z @ 213 NONAME ; void CFSMailFolder::GetSubFoldersL(class RPointerArray<class CFSMailFolder> &)
	?SetFlag@CFSMailMessageBase@@QAEXH@Z @ 214 NONAME ; void CFSMailMessageBase::SetFlag(int)
	?NewLC@CFSMailIterator@@SAPAV1@AAVMFSMailIterator@@PAVCFSMailRequestHandler@@@Z @ 215 NONAME ; class CFSMailIterator * CFSMailIterator::NewLC(class MFSMailIterator &, class CFSMailRequestHandler *)
	?MoveMessagesL@CFSMailBox@@QAEHAAVMFSMailRequestObserver@@ABV?$RArray@VTFSMailMsgId@@@@VTFSMailMsgId@@2@Z @ 216 NONAME ; int CFSMailBox::MoveMessagesL(class MFSMailRequestObserver &, class RArray<class TFSMailMsgId> const &, class TFSMailMsgId, class TFSMailMsgId)
	?SetContentSize@CFSMailMessagePart@@QAEXI@Z @ 217 NONAME ; void CFSMailMessagePart::SetContentSize(unsigned int)
	?NewL@CFSMailMessagePart@@SAPAV1@VTFSMailMsgId@@0@Z @ 218 NONAME ; class CFSMailMessagePart * CFSMailMessagePart::NewL(class TFSMailMsgId, class TFSMailMsgId)

