EXPORTS
	_ZN13NmMessagePart11setParentIdERK4NmId @ 1 NONAME
	_ZN13NmMessagePart12addChildPartEPS_ @ 2 NONAME
	_ZN13NmMessagePart12setContentIdERK7QString @ 3 NONAME
	_ZN13NmMessagePart12setMailboxIdERK4NmId @ 4 NONAME
	_ZN13NmMessagePart13setChildPartsE5QListIPS_E @ 5 NONAME
	_ZN13NmMessagePart14setContentTypeERK7QString @ 6 NONAME
	_ZN13NmMessagePart14setFetchedSizeEj @ 7 NONAME
	_ZN13NmMessagePart14setTextContentERK7QStringS2_ @ 8 NONAME
	_ZN13NmMessagePart15findContentPartERK7QString @ 9 NONAME
	_ZN13NmMessagePart15removeChildPartERK4NmId @ 10 NONAME
	_ZN13NmMessagePart16setBinaryContentERK10QByteArrayRK7QString @ 11 NONAME
	_ZN13NmMessagePart17setAttachmentNameERK7QString @ 12 NONAME
	_ZN13NmMessagePart19removeAllChildPartsEv @ 13 NONAME
	_ZN13NmMessagePart21setContentDescriptionERK7QString @ 14 NONAME
	_ZN13NmMessagePart21setContentDispositionERK7QString @ 15 NONAME
	_ZN13NmMessagePart5setIdERK4NmId @ 16 NONAME
	_ZN13NmMessagePart7setSizeEj @ 17 NONAME
	_ZN13NmMessagePart9contentIdEv @ 18 NONAME
	_ZN13NmMessagePartC1E28QExplicitlySharedDataPointerI20NmMessagePartPrivateE @ 19 NONAME
	_ZN13NmMessagePartC1ERK4NmId @ 20 NONAME
	_ZN13NmMessagePartC1ERK4NmIdS2_ @ 21 NONAME
	_ZN13NmMessagePartC1ERK4NmIdS2_S2_ @ 22 NONAME
	_ZN13NmMessagePartC1ERKS_ @ 23 NONAME
	_ZN13NmMessagePartC1Ev @ 24 NONAME
	_ZN13NmMessagePartC2E28QExplicitlySharedDataPointerI20NmMessagePartPrivateE @ 25 NONAME
	_ZN13NmMessagePartC2ERK4NmId @ 26 NONAME
	_ZN13NmMessagePartC2ERK4NmIdS2_ @ 27 NONAME
	_ZN13NmMessagePartC2ERK4NmIdS2_S2_ @ 28 NONAME
	_ZN13NmMessagePartC2ERKS_ @ 29 NONAME
	_ZN13NmMessagePartC2Ev @ 30 NONAME
	_ZN13NmMessagePartD0Ev @ 31 NONAME
	_ZN13NmMessagePartD1Ev @ 32 NONAME
	_ZN13NmMessagePartD2Ev @ 33 NONAME
	_ZN13NmMessagePartaSERKS_ @ 34 NONAME
	_ZN15NmFolderPrivateC1Ev @ 35 NONAME
	_ZN15NmFolderPrivateC2Ev @ 36 NONAME
	_ZN15NmFolderPrivateD0Ev @ 37 NONAME
	_ZN15NmFolderPrivateD1Ev @ 38 NONAME
	_ZN15NmFolderPrivateD2Ev @ 39 NONAME
	_ZN16NmAddressPrivateC1Ev @ 40 NONAME
	_ZN16NmAddressPrivateC2Ev @ 41 NONAME
	_ZN16NmAddressPrivateD0Ev @ 42 NONAME
	_ZN16NmAddressPrivateD1Ev @ 43 NONAME
	_ZN16NmAddressPrivateD2Ev @ 44 NONAME
	_ZN16NmMailboxPrivateC1Ev @ 45 NONAME
	_ZN16NmMailboxPrivateC2Ev @ 46 NONAME
	_ZN16NmMailboxPrivateD0Ev @ 47 NONAME
	_ZN16NmMailboxPrivateD1Ev @ 48 NONAME
	_ZN16NmMailboxPrivateD2Ev @ 49 NONAME
	_ZN17NmMessageEnvelope10setRepliedEb @ 50 NONAME
	_ZN17NmMessageEnvelope10setSubjectERK7QString @ 51 NONAME
	_ZN17NmMessageEnvelope11setParentIdERK4NmId @ 52 NONAME
	_ZN17NmMessageEnvelope11setPriorityE17NmMessagePriority @ 53 NONAME
	_ZN17NmMessageEnvelope11setSentTimeERK9QDateTime @ 54 NONAME
	_ZN17NmMessageEnvelope12setForwardedEb @ 55 NONAME
	_ZN17NmMessageEnvelope12setMailboxIdERK4NmId @ 56 NONAME
	_ZN17NmMessageEnvelope15setCcRecipientsE5QListI9NmAddressE @ 57 NONAME
	_ZN17NmMessageEnvelope15setToRecipientsE5QListI9NmAddressE @ 58 NONAME
	_ZN17NmMessageEnvelope16setBccRecipientsE5QListI9NmAddressE @ 59 NONAME
	_ZN17NmMessageEnvelope17clearCcRecipientsEv @ 60 NONAME
	_ZN17NmMessageEnvelope17clearToRecipientsEv @ 61 NONAME
	_ZN17NmMessageEnvelope17setHasAttachmentsEb @ 62 NONAME
	_ZN17NmMessageEnvelope18clearBccRecipientsEv @ 63 NONAME
	_ZN17NmMessageEnvelope5setIdERK4NmId @ 64 NONAME
	_ZN17NmMessageEnvelope7setReadEb @ 65 NONAME
	_ZN17NmMessageEnvelope9setSenderERK9NmAddress @ 66 NONAME
	_ZN17NmMessageEnvelopeC1E28QExplicitlySharedDataPointerI24NmMessageEnvelopePrivateE @ 67 NONAME
	_ZN17NmMessageEnvelopeC1ERK4NmId @ 68 NONAME
	_ZN17NmMessageEnvelopeC1ERKS_ @ 69 NONAME
	_ZN17NmMessageEnvelopeC1Ev @ 70 NONAME
	_ZN17NmMessageEnvelopeC2E28QExplicitlySharedDataPointerI24NmMessageEnvelopePrivateE @ 71 NONAME
	_ZN17NmMessageEnvelopeC2ERK4NmId @ 72 NONAME
	_ZN17NmMessageEnvelopeC2ERKS_ @ 73 NONAME
	_ZN17NmMessageEnvelopeC2Ev @ 74 NONAME
	_ZN17NmMessageEnvelopeD0Ev @ 75 NONAME
	_ZN17NmMessageEnvelopeD1Ev @ 76 NONAME
	_ZN17NmMessageEnvelopeD2Ev @ 77 NONAME
	_ZN17NmMessageEnvelopeaSERKS_ @ 78 NONAME
	_ZN20NmMessagePartPrivateC1Ev @ 79 NONAME
	_ZN20NmMessagePartPrivateC2Ev @ 80 NONAME
	_ZN20NmMessagePartPrivateD0Ev @ 81 NONAME
	_ZN20NmMessagePartPrivateD1Ev @ 82 NONAME
	_ZN20NmMessagePartPrivateD2Ev @ 83 NONAME
	_ZN24NmMessageEnvelopePrivate7setFlagE13NmMessageFlagb @ 84 NONAME
	_ZN24NmMessageEnvelopePrivate8setFlagsE6QFlagsI13NmMessageFlagEb @ 85 NONAME
	_ZN24NmMessageEnvelopePrivateC1Ev @ 86 NONAME
	_ZN24NmMessageEnvelopePrivateC2Ev @ 87 NONAME
	_ZN24NmMessageEnvelopePrivateD0Ev @ 88 NONAME
	_ZN24NmMessageEnvelopePrivateD1Ev @ 89 NONAME
	_ZN24NmMessageEnvelopePrivateD2Ev @ 90 NONAME
	_ZN8NmFolder11setFolderIdE4NmId @ 91 NONAME
	_ZN8NmFolder11setParentIdE4NmId @ 92 NONAME
	_ZN8NmFolder12setMailboxIdE4NmId @ 93 NONAME
	_ZN8NmFolder13setFolderTypeE12NmFolderType @ 94 NONAME
	_ZN8NmFolder14setLastUpdatedE9QDateTime @ 95 NONAME
	_ZN8NmFolder14setUnseenCountEj @ 96 NONAME
	_ZN8NmFolder15setMessageCountEj @ 97 NONAME
	_ZN8NmFolder17setSubFolderCountEj @ 98 NONAME
	_ZN8NmFolder21setUnreadMessageCountEj @ 99 NONAME
	_ZN8NmFolder7setNameE7QString @ 100 NONAME
	_ZN8NmFolderC1E28QExplicitlySharedDataPointerI15NmFolderPrivateE @ 101 NONAME
	_ZN8NmFolderC1E4NmId @ 102 NONAME
	_ZN8NmFolderC1ERKS_ @ 103 NONAME
	_ZN8NmFolderC2E28QExplicitlySharedDataPointerI15NmFolderPrivateE @ 104 NONAME
	_ZN8NmFolderC2E4NmId @ 105 NONAME
	_ZN8NmFolderC2ERKS_ @ 106 NONAME
	_ZN8NmFolderD0Ev @ 107 NONAME
	_ZN8NmFolderD1Ev @ 108 NONAME
	_ZN8NmFolderD2Ev @ 109 NONAME
	_ZN8NmFolderaSERKS_ @ 110 NONAME
	_ZN9NmAddress10setAddressERK7QString @ 111 NONAME
	_ZN9NmAddress14setDisplayNameERK7QString @ 112 NONAME
	_ZN9NmAddressC1E28QExplicitlySharedDataPointerI16NmAddressPrivateE @ 113 NONAME
	_ZN9NmAddressC1ERK7QString @ 114 NONAME
	_ZN9NmAddressC1ERK7QStringS2_ @ 115 NONAME
	_ZN9NmAddressC1ERKS_ @ 116 NONAME
	_ZN9NmAddressC1Ev @ 117 NONAME
	_ZN9NmAddressC2E28QExplicitlySharedDataPointerI16NmAddressPrivateE @ 118 NONAME
	_ZN9NmAddressC2ERK7QString @ 119 NONAME
	_ZN9NmAddressC2ERK7QStringS2_ @ 120 NONAME
	_ZN9NmAddressC2ERKS_ @ 121 NONAME
	_ZN9NmAddressC2Ev @ 122 NONAME
	_ZN9NmAddressD0Ev @ 123 NONAME
	_ZN9NmAddressD1Ev @ 124 NONAME
	_ZN9NmAddressD2Ev @ 125 NONAME
	_ZN9NmAddressaSERKS_ @ 126 NONAME
	_ZN9NmMailbox10setAddressER9NmAddress @ 127 NONAME
	_ZN9NmMailbox5setIdERK4NmId @ 128 NONAME
	_ZN9NmMailbox7addressEv @ 129 NONAME
	_ZN9NmMailbox7setNameERK7QString @ 130 NONAME
	_ZN9NmMailboxC1E28QExplicitlySharedDataPointerI16NmMailboxPrivateE @ 131 NONAME
	_ZN9NmMailboxC1ERKS_ @ 132 NONAME
	_ZN9NmMailboxC1Ev @ 133 NONAME
	_ZN9NmMailboxC2E28QExplicitlySharedDataPointerI16NmMailboxPrivateE @ 134 NONAME
	_ZN9NmMailboxC2ERKS_ @ 135 NONAME
	_ZN9NmMailboxC2Ev @ 136 NONAME
	_ZN9NmMailboxD0Ev @ 137 NONAME
	_ZN9NmMailboxD1Ev @ 138 NONAME
	_ZN9NmMailboxD2Ev @ 139 NONAME
	_ZN9NmMailboxaSERKS_ @ 140 NONAME
	_ZN9NmMessage11setEnvelopeERK17NmMessageEnvelope @ 141 NONAME
	_ZN9NmMessage12htmlBodyPartEv @ 142 NONAME
	_ZN9NmMessage17plainTextBodyPartEv @ 143 NONAME
	_ZN9NmMessage5setIdERK4NmId @ 144 NONAME
	_ZN9NmMessage8envelopeEv @ 145 NONAME
	_ZN9NmMessageC1ERK13NmMessagePart @ 146 NONAME
	_ZN9NmMessageC1ERK17NmMessageEnvelope @ 147 NONAME
	_ZN9NmMessageC1ERK4NmId @ 148 NONAME
	_ZN9NmMessageC1ERK4NmIdS2_ @ 149 NONAME
	_ZN9NmMessageC1ERK4NmIdS2_S2_ @ 150 NONAME
	_ZN9NmMessageC1ERKS_ @ 151 NONAME
	_ZN9NmMessageC1Ev @ 152 NONAME
	_ZN9NmMessageC2ERK13NmMessagePart @ 153 NONAME
	_ZN9NmMessageC2ERK17NmMessageEnvelope @ 154 NONAME
	_ZN9NmMessageC2ERK4NmId @ 155 NONAME
	_ZN9NmMessageC2ERK4NmIdS2_ @ 156 NONAME
	_ZN9NmMessageC2ERK4NmIdS2_S2_ @ 157 NONAME
	_ZN9NmMessageC2ERKS_ @ 158 NONAME
	_ZN9NmMessageC2Ev @ 159 NONAME
	_ZN9NmMessageD0Ev @ 160 NONAME
	_ZN9NmMessageD1Ev @ 161 NONAME
	_ZN9NmMessageD2Ev @ 162 NONAME
	_ZN9NmMessageaSERKS_ @ 163 NONAME
	_ZNK13NmMessagePart10childPartsEv @ 164 NONAME
	_ZNK13NmMessagePart11contentTypeEv @ 165 NONAME
	_ZNK13NmMessagePart11fetchedSizeEv @ 166 NONAME
	_ZNK13NmMessagePart11textContentEv @ 167 NONAME
	_ZNK13NmMessagePart13binaryContentEv @ 168 NONAME
	_ZNK13NmMessagePart14attachmentNameEv @ 169 NONAME
	_ZNK13NmMessagePart15findContentPartERK7QString @ 170 NONAME
	_ZNK13NmMessagePart17appendAttachmentsER5QListIPS_E @ 171 NONAME
	_ZNK13NmMessagePart18contentDescriptionEv @ 172 NONAME
	_ZNK13NmMessagePart18contentDispositionEv @ 173 NONAME
	_ZNK13NmMessagePart2idEv @ 174 NONAME
	_ZNK13NmMessagePart4sizeEv @ 175 NONAME
	_ZNK13NmMessagePart8parentIdEv @ 176 NONAME
	_ZNK13NmMessagePart9isMessageEv @ 177 NONAME
	_ZNK13NmMessagePart9mailboxIdEv @ 178 NONAME
	_ZNK17NmMessageEnvelope11isForwardedEv @ 179 NONAME
	_ZNK17NmMessageEnvelope12ccRecipientsEv @ 180 NONAME
	_ZNK17NmMessageEnvelope12toRecipientsEv @ 181 NONAME
	_ZNK17NmMessageEnvelope13bccRecipientsEv @ 182 NONAME
	_ZNK17NmMessageEnvelope14hasAttachmentsEv @ 183 NONAME
	_ZNK17NmMessageEnvelope2idEv @ 184 NONAME
	_ZNK17NmMessageEnvelope5flagsEv @ 185 NONAME
	_ZNK17NmMessageEnvelope6isReadEv @ 186 NONAME
	_ZNK17NmMessageEnvelope6senderEv @ 187 NONAME
	_ZNK17NmMessageEnvelope7subjectEv @ 188 NONAME
	_ZNK17NmMessageEnvelope8parentIdEv @ 189 NONAME
	_ZNK17NmMessageEnvelope8priorityEv @ 190 NONAME
	_ZNK17NmMessageEnvelope8sentTimeEv @ 191 NONAME
	_ZNK17NmMessageEnvelope9isRepliedEv @ 192 NONAME
	_ZNK17NmMessageEnvelope9mailboxIdEv @ 193 NONAME
	_ZNK17NmMessageEnvelopeeqERKS_ @ 194 NONAME
	_ZNK17NmMessageEnvelopeneERKS_ @ 195 NONAME
	_ZNK20NmMessagePartPrivate13isTextContentEv @ 196 NONAME
	_ZNK20NmMessagePartPrivate9isMessageEv @ 197 NONAME
	_ZNK24NmMessageEnvelopePrivate5flagsEv @ 198 NONAME
	_ZNK24NmMessageEnvelopePrivate9isFlagSetE13NmMessageFlag @ 199 NONAME
	_ZNK8NmFolder10folderTypeEv @ 200 NONAME
	_ZNK8NmFolder11lastUpdatedEv @ 201 NONAME
	_ZNK8NmFolder11unseenCountEv @ 202 NONAME
	_ZNK8NmFolder12messageCountEv @ 203 NONAME
	_ZNK8NmFolder14subFolderCountEv @ 204 NONAME
	_ZNK8NmFolder18unreadMessageCountEv @ 205 NONAME
	_ZNK8NmFolder4nameEv @ 206 NONAME
	_ZNK8NmFolder8folderIdEv @ 207 NONAME
	_ZNK8NmFolder8parentIdEv @ 208 NONAME
	_ZNK8NmFolder9mailboxIdEv @ 209 NONAME
	_ZNK9NmAddress11displayNameEv @ 210 NONAME
	_ZNK9NmAddress7addressEv @ 211 NONAME
	_ZNK9NmAddresseqERKS_ @ 212 NONAME
	_ZNK9NmAddressneERKS_ @ 213 NONAME
	_ZNK9NmMailbox2idEv @ 214 NONAME
	_ZNK9NmMailbox4nameEv @ 215 NONAME
	_ZNK9NmMailboxeqERKS_ @ 216 NONAME
	_ZNK9NmMessage12htmlBodyPartEv @ 217 NONAME
	_ZNK9NmMessage14attachmentListER5QListIP13NmMessagePartE @ 218 NONAME
	_ZNK9NmMessage17plainTextBodyPartEv @ 219 NONAME
	_ZNK9NmMessage2idEv @ 220 NONAME
	_ZNK9NmMessage8envelopeEv @ 221 NONAME
	_ZTI13NmMessagePart @ 222 NONAME
	_ZTI15NmFolderPrivate @ 223 NONAME
	_ZTI16NmAddressPrivate @ 224 NONAME
	_ZTI16NmMailboxPrivate @ 225 NONAME
	_ZTI17NmMessageEnvelope @ 226 NONAME
	_ZTI20NmMessagePartPrivate @ 227 NONAME
	_ZTI24NmMessageEnvelopePrivate @ 228 NONAME
	_ZTI8NmFolder @ 229 NONAME
	_ZTI9NmAddress @ 230 NONAME
	_ZTI9NmMailbox @ 231 NONAME
	_ZTI9NmMessage @ 232 NONAME
	_ZTV13NmMessagePart @ 233 NONAME
	_ZTV15NmFolderPrivate @ 234 NONAME
	_ZTV16NmAddressPrivate @ 235 NONAME
	_ZTV16NmMailboxPrivate @ 236 NONAME
	_ZTV17NmMessageEnvelope @ 237 NONAME
	_ZTV20NmMessagePartPrivate @ 238 NONAME
	_ZTV24NmMessageEnvelopePrivate @ 239 NONAME
	_ZTV8NmFolder @ 240 NONAME
	_ZTV9NmAddress @ 241 NONAME
	_ZTV9NmMailbox @ 242 NONAME
	_ZTV9NmMessage @ 243 NONAME

