EXPORTS
	?metaObject@NmSettingsViewFactory@@UBEPBUQMetaObject@@XZ @ 1 NONAME ; struct QMetaObject const * NmSettingsViewFactory::metaObject(void) const
	?tr@NmSettingsViewLauncher@@SA?AVQString@@PBD0H@Z @ 2 NONAME ; class QString NmSettingsViewLauncher::tr(char const *, char const *, int)
	?getStaticMetaObject@NmSettingsViewLauncher@@SAABUQMetaObject@@XZ @ 3 NONAME ; struct QMetaObject const & NmSettingsViewLauncher::getStaticMetaObject(void)
	?trUtf8@NmSettingsViewFactory@@SA?AVQString@@PBD0H@Z @ 4 NONAME ; class QString NmSettingsViewFactory::trUtf8(char const *, char const *, int)
	?backPress@NmSettingsViewFactory@@AAEXXZ @ 5 NONAME ; void NmSettingsViewFactory::backPress(void)
	?launchSettingsView@NmSettingsViewLauncher@@QAEXABVNmId@@ABVQString@@@Z @ 6 NONAME ; void NmSettingsViewLauncher::launchSettingsView(class NmId const &, class QString const &)
	?tr@NmSettingsViewFactory@@SA?AVQString@@PBD0H@Z @ 7 NONAME ; class QString NmSettingsViewFactory::tr(char const *, char const *, int)
	?createSettingView@NmSettingsViewFactory@@UBEPAVCpBaseSettingView@@XZ @ 8 NONAME ; class CpBaseSettingView * NmSettingsViewFactory::createSettingView(void) const
	?metaObject@NmSettingsViewLauncher@@UBEPBUQMetaObject@@XZ @ 9 NONAME ; struct QMetaObject const * NmSettingsViewLauncher::metaObject(void) const
	?qt_metacall@NmSettingsViewFactory@@UAEHW4Call@QMetaObject@@HPAPAX@Z @ 10 NONAME ; int NmSettingsViewFactory::qt_metacall(enum QMetaObject::Call, int, void * *)
	??1NmSettingsViewFactory@@UAE@XZ @ 11 NONAME ; NmSettingsViewFactory::~NmSettingsViewFactory(void)
	?launchSettingView@NmSettingsViewFactory@@QBEXABVNmId@@ABVQString@@@Z @ 12 NONAME ; void NmSettingsViewFactory::launchSettingView(class NmId const &, class QString const &) const
	?tr@NmSettingsViewLauncher@@SA?AVQString@@PBD0@Z @ 13 NONAME ; class QString NmSettingsViewLauncher::tr(char const *, char const *)
	??1NmSettingsViewLauncher@@UAE@XZ @ 14 NONAME ; NmSettingsViewLauncher::~NmSettingsViewLauncher(void)
	?trUtf8@NmSettingsViewLauncher@@SA?AVQString@@PBD0@Z @ 15 NONAME ; class QString NmSettingsViewLauncher::trUtf8(char const *, char const *)
	??0NmSettingsViewLauncher@@QAE@XZ @ 16 NONAME ; NmSettingsViewLauncher::NmSettingsViewLauncher(void)
	??_ENmSettingsViewFactory@@UAE@I@Z @ 17 NONAME ; NmSettingsViewFactory::~NmSettingsViewFactory(unsigned int)
	?trUtf8@NmSettingsViewFactory@@SA?AVQString@@PBD0@Z @ 18 NONAME ; class QString NmSettingsViewFactory::trUtf8(char const *, char const *)
	?qt_metacall@NmSettingsViewLauncher@@UAEHW4Call@QMetaObject@@HPAPAX@Z @ 19 NONAME ; int NmSettingsViewLauncher::qt_metacall(enum QMetaObject::Call, int, void * *)
	?getStaticMetaObject@NmSettingsViewFactory@@SAABUQMetaObject@@XZ @ 20 NONAME ; struct QMetaObject const & NmSettingsViewFactory::getStaticMetaObject(void)
	??_ENmSettingsViewLauncher@@UAE@I@Z @ 21 NONAME ; NmSettingsViewLauncher::~NmSettingsViewLauncher(unsigned int)
	?mailboxPropertyChanged@NmSettingsViewLauncher@@IAEXABVNmId@@VQVariant@@1@Z @ 22 NONAME ; void NmSettingsViewLauncher::mailboxPropertyChanged(class NmId const &, class QVariant, class QVariant)
	??0NmSettingsViewFactory@@QAE@AAVCpItemDataHelper@@ABVQString@@1ABVHbIcon@@PBVHbDataFormModelItem@@@Z @ 23 NONAME ; NmSettingsViewFactory::NmSettingsViewFactory(class CpItemDataHelper &, class QString const &, class QString const &, class HbIcon const &, class HbDataFormModelItem const *)
	?trUtf8@NmSettingsViewLauncher@@SA?AVQString@@PBD0H@Z @ 24 NONAME ; class QString NmSettingsViewLauncher::trUtf8(char const *, char const *, int)
	?qt_metacast@NmSettingsViewLauncher@@UAEPAXPBD@Z @ 25 NONAME ; void * NmSettingsViewLauncher::qt_metacast(char const *)
	?qt_metacast@NmSettingsViewFactory@@UAEPAXPBD@Z @ 26 NONAME ; void * NmSettingsViewFactory::qt_metacast(char const *)
	??0NmSettingsViewFactory@@QAE@PBVNmSettingsViewLauncher@@AAVCpItemDataHelper@@ABVQString@@2ABVHbIcon@@PBVHbDataFormModelItem@@@Z @ 27 NONAME ; NmSettingsViewFactory::NmSettingsViewFactory(class NmSettingsViewLauncher const *, class CpItemDataHelper &, class QString const &, class QString const &, class HbIcon const &, class HbDataFormModelItem const *)
	?tr@NmSettingsViewFactory@@SA?AVQString@@PBD0@Z @ 28 NONAME ; class QString NmSettingsViewFactory::tr(char const *, char const *)
	?staticMetaObject@NmSettingsViewFactory@@2UQMetaObject@@B @ 29 NONAME ; struct QMetaObject const NmSettingsViewFactory::staticMetaObject
	?mailboxListChanged@NmSettingsViewLauncher@@IAEXABVNmId@@W4MailboxEventType@NmSettings@@@Z @ 30 NONAME ; void NmSettingsViewLauncher::mailboxListChanged(class NmId const &, enum NmSettings::MailboxEventType)
	?staticMetaObject@NmSettingsViewLauncher@@2UQMetaObject@@B @ 31 NONAME ; struct QMetaObject const NmSettingsViewLauncher::staticMetaObject
